; Listing generated by Microsoft (R) Optimizing Compiler Version 19.15.26726.0 

include listing.inc

INCLUDELIB OLDNAMES

PUBLIC	??_C@_0BD@OLBABOEK@vector?$DMT?$DO?5too?5long@	; `string'
PUBLIC	??_R0?AVSphere@@@8				; Sphere `RTTI Type Descriptor'
PUBLIC	??_R3Material@@8				; Material::`RTTI Class Hierarchy Descriptor'
PUBLIC	??_R0?AVLambertian@@@8				; Lambertian `RTTI Type Descriptor'
PUBLIC	??_R1A@?0A@EA@Material@@8			; Material::`RTTI Base Class Descriptor at (0,-1,0,64)'
PUBLIC	??_R3Metal@@8					; Metal::`RTTI Class Hierarchy Descriptor'
PUBLIC	??_R2Dielectric@@8				; Dielectric::`RTTI Base Class Array'
PUBLIC	??_R4Sphere@@6B@				; Sphere::`RTTI Complete Object Locator'
PUBLIC	??_R3?$_LaunchPad@V?$unique_ptr@V?$tuple@P6AXPEAURayTraceTreadConfig@@@ZPEAU1@@std@@U?$default_delete@V?$tuple@P6AXPEAURayTraceTreadConfig@@@ZPEAU1@@std@@@2@@std@@@std@@8 ; std::_LaunchPad<std::unique_ptr<std::tuple<void (__cdecl*)(RayTraceTreadConfig *),RayTraceTreadConfig *>,std::default_delete<std::tuple<void (__cdecl*)(RayTraceTreadConfig *),RayTraceTreadConfig *> > > >::`RTTI Class Hierarchy Descriptor'
PUBLIC	??_R2Lambertian@@8				; Lambertian::`RTTI Base Class Array'
PUBLIC	??_R2Sphere@@8					; Sphere::`RTTI Base Class Array'
PUBLIC	??_7Sphere@@6B@					; Sphere::`vftable'
PUBLIC	??_R4Lambertian@@6B@				; Lambertian::`RTTI Complete Object Locator'
PUBLIC	??_R4?$_LaunchPad@V?$unique_ptr@V?$tuple@P6AXPEAURayTraceTreadConfig@@@ZPEAU1@@std@@U?$default_delete@V?$tuple@P6AXPEAURayTraceTreadConfig@@@ZPEAU1@@std@@@2@@std@@@std@@6B@ ; std::_LaunchPad<std::unique_ptr<std::tuple<void (__cdecl*)(RayTraceTreadConfig *),RayTraceTreadConfig *>,std::default_delete<std::tuple<void (__cdecl*)(RayTraceTreadConfig *),RayTraceTreadConfig *> > > >::`RTTI Complete Object Locator'
PUBLIC	??_R1A@?0A@EA@HitableList@@8			; HitableList::`RTTI Base Class Descriptor at (0,-1,0,64)'
PUBLIC	??_R1A@?0A@EA@_Pad@std@@8			; std::_Pad::`RTTI Base Class Descriptor at (0,-1,0,64)'
PUBLIC	??_7Dielectric@@6B@				; Dielectric::`vftable'
PUBLIC	??_7Hitable@@6B@				; Hitable::`vftable'
PUBLIC	??_R3?$_LaunchPad@V?$unique_ptr@V?$tuple@P6AXPEAURayTraceTreadConfig@@H@ZPEAU1@H@std@@U?$default_delete@V?$tuple@P6AXPEAURayTraceTreadConfig@@H@ZPEAU1@H@std@@@2@@std@@@std@@8 ; std::_LaunchPad<std::unique_ptr<std::tuple<void (__cdecl*)(RayTraceTreadConfig *,int),RayTraceTreadConfig *,int>,std::default_delete<std::tuple<void (__cdecl*)(RayTraceTreadConfig *,int),RayTraceTreadConfig *,int> > > >::`RTTI Class Hierarchy Descriptor'
PUBLIC	??_7?$_LaunchPad@V?$unique_ptr@V?$tuple@P6AXPEAURayTraceTreadConfig@@@ZPEAU1@@std@@U?$default_delete@V?$tuple@P6AXPEAURayTraceTreadConfig@@@ZPEAU1@@std@@@2@@std@@@std@@6B@ ; std::_LaunchPad<std::unique_ptr<std::tuple<void (__cdecl*)(RayTraceTreadConfig *),RayTraceTreadConfig *>,std::default_delete<std::tuple<void (__cdecl*)(RayTraceTreadConfig *),RayTraceTreadConfig *> > > >::`vftable'
PUBLIC	??_R4Dielectric@@6B@				; Dielectric::`RTTI Complete Object Locator'
PUBLIC	??_R2Metal@@8					; Metal::`RTTI Base Class Array'
PUBLIC	??_R1A@?0A@EA@?$_LaunchPad@V?$unique_ptr@V?$tuple@P6AXPEAURayTraceTreadConfig@@@ZPEAU1@@std@@U?$default_delete@V?$tuple@P6AXPEAURayTraceTreadConfig@@@ZPEAU1@@std@@@2@@std@@@std@@8 ; std::_LaunchPad<std::unique_ptr<std::tuple<void (__cdecl*)(RayTraceTreadConfig *),RayTraceTreadConfig *>,std::default_delete<std::tuple<void (__cdecl*)(RayTraceTreadConfig *),RayTraceTreadConfig *> > > >::`RTTI Base Class Descriptor at (0,-1,0,64)'
PUBLIC	??_R2HitableList@@8				; HitableList::`RTTI Base Class Array'
PUBLIC	??_R3Dielectric@@8				; Dielectric::`RTTI Class Hierarchy Descriptor'
PUBLIC	??_R4Metal@@6B@					; Metal::`RTTI Complete Object Locator'
PUBLIC	??_R3HitableList@@8				; HitableList::`RTTI Class Hierarchy Descriptor'
PUBLIC	??_R1A@?0A@EA@Lambertian@@8			; Lambertian::`RTTI Base Class Descriptor at (0,-1,0,64)'
PUBLIC	??_7Metal@@6B@					; Metal::`vftable'
PUBLIC	??_R4HitableList@@6B@				; HitableList::`RTTI Complete Object Locator'
PUBLIC	??_7Lambertian@@6B@				; Lambertian::`vftable'
PUBLIC	??_R1A@?0A@EA@Dielectric@@8			; Dielectric::`RTTI Base Class Descriptor at (0,-1,0,64)'
PUBLIC	??_R1A@?0A@EA@?$_LaunchPad@V?$unique_ptr@V?$tuple@P6AXPEAURayTraceTreadConfig@@H@ZPEAU1@H@std@@U?$default_delete@V?$tuple@P6AXPEAURayTraceTreadConfig@@H@ZPEAU1@H@std@@@2@@std@@@std@@8 ; std::_LaunchPad<std::unique_ptr<std::tuple<void (__cdecl*)(RayTraceTreadConfig *,int),RayTraceTreadConfig *,int>,std::default_delete<std::tuple<void (__cdecl*)(RayTraceTreadConfig *,int),RayTraceTreadConfig *,int> > > >::`RTTI Base Class Descriptor at (0,-1,0,64)'
PUBLIC	??_R4Material@@6B@				; Material::`RTTI Complete Object Locator'
PUBLIC	??_R4?$_LaunchPad@V?$unique_ptr@V?$tuple@P6AXPEAURayTraceTreadConfig@@H@ZPEAU1@H@std@@U?$default_delete@V?$tuple@P6AXPEAURayTraceTreadConfig@@H@ZPEAU1@H@std@@@2@@std@@@std@@6B@ ; std::_LaunchPad<std::unique_ptr<std::tuple<void (__cdecl*)(RayTraceTreadConfig *,int),RayTraceTreadConfig *,int>,std::default_delete<std::tuple<void (__cdecl*)(RayTraceTreadConfig *,int),RayTraceTreadConfig *,int> > > >::`RTTI Complete Object Locator'
PUBLIC	??_R1A@?0A@EA@Metal@@8				; Metal::`RTTI Base Class Descriptor at (0,-1,0,64)'
PUBLIC	??_R0?AVHitableList@@@8				; HitableList `RTTI Type Descriptor'
PUBLIC	??_R3Lambertian@@8				; Lambertian::`RTTI Class Hierarchy Descriptor'
PUBLIC	??_R2Hitable@@8					; Hitable::`RTTI Base Class Array'
PUBLIC	??_R4Hitable@@6B@				; Hitable::`RTTI Complete Object Locator'
PUBLIC	??_R2Material@@8				; Material::`RTTI Base Class Array'
PUBLIC	??_R0?AVDielectric@@@8				; Dielectric `RTTI Type Descriptor'
PUBLIC	??_R0?AVMetal@@@8				; Metal `RTTI Type Descriptor'
PUBLIC	??_R2?$_LaunchPad@V?$unique_ptr@V?$tuple@P6AXPEAURayTraceTreadConfig@@@ZPEAU1@@std@@U?$default_delete@V?$tuple@P6AXPEAURayTraceTreadConfig@@@ZPEAU1@@std@@@2@@std@@@std@@8 ; std::_LaunchPad<std::unique_ptr<std::tuple<void (__cdecl*)(RayTraceTreadConfig *),RayTraceTreadConfig *>,std::default_delete<std::tuple<void (__cdecl*)(RayTraceTreadConfig *),RayTraceTreadConfig *> > > >::`RTTI Base Class Array'
PUBLIC	??_R0?AV_Pad@std@@@8				; std::_Pad `RTTI Type Descriptor'
PUBLIC	??_R1A@?0A@EA@Hitable@@8			; Hitable::`RTTI Base Class Descriptor at (0,-1,0,64)'
PUBLIC	??_R0?AV?$_LaunchPad@V?$unique_ptr@V?$tuple@P6AXPEAURayTraceTreadConfig@@H@ZPEAU1@H@std@@U?$default_delete@V?$tuple@P6AXPEAURayTraceTreadConfig@@H@ZPEAU1@H@std@@@2@@std@@@std@@@8 ; std::_LaunchPad<std::unique_ptr<std::tuple<void (__cdecl*)(RayTraceTreadConfig *,int),RayTraceTreadConfig *,int>,std::default_delete<std::tuple<void (__cdecl*)(RayTraceTreadConfig *,int),RayTraceTreadConfig *,int> > > > `RTTI Type Descriptor'
PUBLIC	??_R3_Pad@std@@8				; std::_Pad::`RTTI Class Hierarchy Descriptor'
PUBLIC	??_R2?$_LaunchPad@V?$unique_ptr@V?$tuple@P6AXPEAURayTraceTreadConfig@@H@ZPEAU1@H@std@@U?$default_delete@V?$tuple@P6AXPEAURayTraceTreadConfig@@H@ZPEAU1@H@std@@@2@@std@@@std@@8 ; std::_LaunchPad<std::unique_ptr<std::tuple<void (__cdecl*)(RayTraceTreadConfig *,int),RayTraceTreadConfig *,int>,std::default_delete<std::tuple<void (__cdecl*)(RayTraceTreadConfig *,int),RayTraceTreadConfig *,int> > > >::`RTTI Base Class Array'
PUBLIC	??_7?$_LaunchPad@V?$unique_ptr@V?$tuple@P6AXPEAURayTraceTreadConfig@@H@ZPEAU1@H@std@@U?$default_delete@V?$tuple@P6AXPEAURayTraceTreadConfig@@H@ZPEAU1@H@std@@@2@@std@@@std@@6B@ ; std::_LaunchPad<std::unique_ptr<std::tuple<void (__cdecl*)(RayTraceTreadConfig *,int),RayTraceTreadConfig *,int>,std::default_delete<std::tuple<void (__cdecl*)(RayTraceTreadConfig *,int),RayTraceTreadConfig *,int> > > >::`vftable'
PUBLIC	??_7HitableList@@6B@				; HitableList::`vftable'
PUBLIC	??_R0?AV?$_LaunchPad@V?$unique_ptr@V?$tuple@P6AXPEAURayTraceTreadConfig@@@ZPEAU1@@std@@U?$default_delete@V?$tuple@P6AXPEAURayTraceTreadConfig@@@ZPEAU1@@std@@@2@@std@@@std@@@8 ; std::_LaunchPad<std::unique_ptr<std::tuple<void (__cdecl*)(RayTraceTreadConfig *),RayTraceTreadConfig *>,std::default_delete<std::tuple<void (__cdecl*)(RayTraceTreadConfig *),RayTraceTreadConfig *> > > > `RTTI Type Descriptor'
PUBLIC	??_R0?AVHitable@@@8				; Hitable `RTTI Type Descriptor'
PUBLIC	??_R3Sphere@@8					; Sphere::`RTTI Class Hierarchy Descriptor'
PUBLIC	??_R2_Pad@std@@8				; std::_Pad::`RTTI Base Class Array'
PUBLIC	??_7Material@@6B@				; Material::`vftable'
PUBLIC	??_R3Hitable@@8					; Hitable::`RTTI Class Hierarchy Descriptor'
PUBLIC	??_R0?AVMaterial@@@8				; Material `RTTI Type Descriptor'
PUBLIC	??_R1A@?0A@EA@Sphere@@8				; Sphere::`RTTI Base Class Descriptor at (0,-1,0,64)'
EXTRN	_purecall:PROC
EXTRN	__imp_malloc:PROC
EXTRN	__imp__invalid_parameter_noinfo_noreturn:PROC
EXTRN	__imp__Mtx_unlock:PROC
EXTRN	__imp__Thrd_join:PROC
EXTRN	__imp__Cnd_init:PROC
EXTRN	__imp__Mtx_destroy:PROC
EXTRN	??_7type_info@@6B@:BYTE				; type_info::`vftable'
EXTRN	__imp___std_terminate:PROC
EXTRN	__imp_free:PROC
EXTRN	__imp__time64:PROC
EXTRN	__imp__Thrd_id:PROC
EXTRN	__imp__Thrd_start:PROC
EXTRN	__imp__Mtx_init:PROC
EXTRN	__imp__Cnd_wait:PROC
EXTRN	__imp__Cnd_destroy:PROC
EXTRN	__imp__Cnd_do_broadcast_at_thread_exit:PROC
EXTRN	__imp__Mtx_lock:PROC
EXTRN	__imp_terminate:PROC
EXTRN	__imp__purecall:PROC
EXTRN	??3@YAXPEAX_K@Z:PROC				; operator delete
EXTRN	__imp_rand:PROC
EXTRN	__imp_?_Xlength_error@std@@YAXPEBD@Z:PROC
EXTRN	__imp_?_Throw_C_error@std@@YAXH@Z:PROC
EXTRN	__imp_?_Throw_Cpp_error@std@@YAXH@Z:PROC
EXTRN	??2@YAPEAX_K@Z:PROC				; operator new
EXTRN	__imp_srand:PROC
EXTRN	__imp__Thrd_hardware_concurrency:PROC
EXTRN	__imp__Cnd_signal:PROC
EXTRN	__security_check_cookie:PROC
EXTRN	__imp___CxxFrameHandler3:PROC
;	COMDAT ??_R1A@?0A@EA@Sphere@@8
rdata$r	SEGMENT
??_R1A@?0A@EA@Sphere@@8 DD imagerel ??_R0?AVSphere@@@8	; Sphere::`RTTI Base Class Descriptor at (0,-1,0,64)'
	DD	01H
	DD	00H
	DD	0ffffffffH
	DD	00H
	DD	040H
	DD	imagerel ??_R3Sphere@@8
rdata$r	ENDS
;	COMDAT ??_R0?AVMaterial@@@8
data$r	SEGMENT
??_R0?AVMaterial@@@8 DQ FLAT:??_7type_info@@6B@		; Material `RTTI Type Descriptor'
	DQ	0000000000000000H
	DB	'.?AVMaterial@@', 00H
data$r	ENDS
;	COMDAT ??_R3Hitable@@8
rdata$r	SEGMENT
??_R3Hitable@@8 DD 00H					; Hitable::`RTTI Class Hierarchy Descriptor'
	DD	00H
	DD	01H
	DD	imagerel ??_R2Hitable@@8
rdata$r	ENDS
;	COMDAT ??_7Material@@6B@
CONST	SEGMENT
??_7Material@@6B@ DQ FLAT:??_R4Material@@6B@		; Material::`vftable'
	DQ	FLAT:_purecall
CONST	ENDS
;	COMDAT ??_R2_Pad@std@@8
rdata$r	SEGMENT
??_R2_Pad@std@@8 DD imagerel ??_R1A@?0A@EA@_Pad@std@@8	; std::_Pad::`RTTI Base Class Array'
	ORG $+3
rdata$r	ENDS
;	COMDAT ??_R3Sphere@@8
rdata$r	SEGMENT
??_R3Sphere@@8 DD 00H					; Sphere::`RTTI Class Hierarchy Descriptor'
	DD	00H
	DD	02H
	DD	imagerel ??_R2Sphere@@8
rdata$r	ENDS
;	COMDAT ??_R0?AVHitable@@@8
data$r	SEGMENT
??_R0?AVHitable@@@8 DQ FLAT:??_7type_info@@6B@		; Hitable `RTTI Type Descriptor'
	DQ	0000000000000000H
	DB	'.?AVHitable@@', 00H
data$r	ENDS
;	COMDAT ??_R0?AV?$_LaunchPad@V?$unique_ptr@V?$tuple@P6AXPEAURayTraceTreadConfig@@@ZPEAU1@@std@@U?$default_delete@V?$tuple@P6AXPEAURayTraceTreadConfig@@@ZPEAU1@@std@@@2@@std@@@std@@@8
data$r	SEGMENT
??_R0?AV?$_LaunchPad@V?$unique_ptr@V?$tuple@P6AXPEAURayTraceTreadConfig@@@ZPEAU1@@std@@U?$default_delete@V?$tuple@P6AXPEAURayTraceTreadConfig@@@ZPEAU1@@std@@@2@@std@@@std@@@8 DQ FLAT:??_7type_info@@6B@ ; std::_LaunchPad<std::unique_ptr<std::tuple<void (__cdecl*)(RayTraceTreadConfig *),RayTraceTreadConfig *>,std::default_delete<std::tuple<void (__cdecl*)(RayTraceTreadConfig *),RayTraceTreadConfig *> > > > `RTTI Type Descriptor'
	DQ	0000000000000000H
	DB	'.?AV?$_LaunchPad@V?$unique_ptr@V?$tuple@P6AXPEAURayTrace'
	DB	'TreadConfig@@@ZPEAU1@@std@@U?$default_delete@V?$tuple@P6AXPEA'
	DB	'URayTraceTreadConfig@@@ZPEAU1@@std@@@2@@std@@@std@@', 00H
data$r	ENDS
;	COMDAT ??_7HitableList@@6B@
CONST	SEGMENT
??_7HitableList@@6B@ DQ FLAT:??_R4HitableList@@6B@	; HitableList::`vftable'
	DQ	FLAT:?hit@HitableList@@UEBA_NAEBVRay@@MMAEAUhit_record@@@Z
CONST	ENDS
;	COMDAT ??_7?$_LaunchPad@V?$unique_ptr@V?$tuple@P6AXPEAURayTraceTreadConfig@@H@ZPEAU1@H@std@@U?$default_delete@V?$tuple@P6AXPEAURayTraceTreadConfig@@H@ZPEAU1@H@std@@@2@@std@@@std@@6B@
CONST	SEGMENT
??_7?$_LaunchPad@V?$unique_ptr@V?$tuple@P6AXPEAURayTraceTreadConfig@@H@ZPEAU1@H@std@@U?$default_delete@V?$tuple@P6AXPEAURayTraceTreadConfig@@H@ZPEAU1@H@std@@@2@@std@@@std@@6B@ DQ FLAT:??_R4?$_LaunchPad@V?$unique_ptr@V?$tuple@P6AXPEAURayTraceTreadConfig@@H@ZPEAU1@H@std@@U?$default_delete@V?$tuple@P6AXPEAURayTraceTreadConfig@@H@ZPEAU1@H@std@@@2@@std@@@std@@6B@ ; std::_LaunchPad<std::unique_ptr<std::tuple<void (__cdecl*)(RayTraceTreadConfig *,int),RayTraceTreadConfig *,int>,std::default_delete<std::tuple<void (__cdecl*)(RayTraceTreadConfig *,int),RayTraceTreadConfig *,int> > > >::`vftable'
	DQ	FLAT:?_Go@?$_LaunchPad@V?$unique_ptr@V?$tuple@P6AXPEAURayTraceTreadConfig@@H@ZPEAU1@H@std@@U?$default_delete@V?$tuple@P6AXPEAURayTraceTreadConfig@@H@ZPEAU1@H@std@@@2@@std@@@std@@UEAAXXZ
CONST	ENDS
;	COMDAT ??_R2?$_LaunchPad@V?$unique_ptr@V?$tuple@P6AXPEAURayTraceTreadConfig@@H@ZPEAU1@H@std@@U?$default_delete@V?$tuple@P6AXPEAURayTraceTreadConfig@@H@ZPEAU1@H@std@@@2@@std@@@std@@8
rdata$r	SEGMENT
??_R2?$_LaunchPad@V?$unique_ptr@V?$tuple@P6AXPEAURayTraceTreadConfig@@H@ZPEAU1@H@std@@U?$default_delete@V?$tuple@P6AXPEAURayTraceTreadConfig@@H@ZPEAU1@H@std@@@2@@std@@@std@@8 DD imagerel ??_R1A@?0A@EA@?$_LaunchPad@V?$unique_ptr@V?$tuple@P6AXPEAURayTraceTreadConfig@@H@ZPEAU1@H@std@@U?$default_delete@V?$tuple@P6AXPEAURayTraceTreadConfig@@H@ZPEAU1@H@std@@@2@@std@@@std@@8 ; std::_LaunchPad<std::unique_ptr<std::tuple<void (__cdecl*)(RayTraceTreadConfig *,int),RayTraceTreadConfig *,int>,std::default_delete<std::tuple<void (__cdecl*)(RayTraceTreadConfig *,int),RayTraceTreadConfig *,int> > > >::`RTTI Base Class Array'
	DD	imagerel ??_R1A@?0A@EA@_Pad@std@@8
	ORG $+3
rdata$r	ENDS
;	COMDAT ??_R3_Pad@std@@8
rdata$r	SEGMENT
??_R3_Pad@std@@8 DD 00H					; std::_Pad::`RTTI Class Hierarchy Descriptor'
	DD	00H
	DD	01H
	DD	imagerel ??_R2_Pad@std@@8
rdata$r	ENDS
;	COMDAT ??_R0?AV?$_LaunchPad@V?$unique_ptr@V?$tuple@P6AXPEAURayTraceTreadConfig@@H@ZPEAU1@H@std@@U?$default_delete@V?$tuple@P6AXPEAURayTraceTreadConfig@@H@ZPEAU1@H@std@@@2@@std@@@std@@@8
data$r	SEGMENT
??_R0?AV?$_LaunchPad@V?$unique_ptr@V?$tuple@P6AXPEAURayTraceTreadConfig@@H@ZPEAU1@H@std@@U?$default_delete@V?$tuple@P6AXPEAURayTraceTreadConfig@@H@ZPEAU1@H@std@@@2@@std@@@std@@@8 DQ FLAT:??_7type_info@@6B@ ; std::_LaunchPad<std::unique_ptr<std::tuple<void (__cdecl*)(RayTraceTreadConfig *,int),RayTraceTreadConfig *,int>,std::default_delete<std::tuple<void (__cdecl*)(RayTraceTreadConfig *,int),RayTraceTreadConfig *,int> > > > `RTTI Type Descriptor'
	DQ	0000000000000000H
	DB	'.?AV?$_LaunchPad@V?$unique_ptr@V?$tuple@P6AXPEAURayTrace'
	DB	'TreadConfig@@H@ZPEAU1@H@std@@U?$default_delete@V?$tuple@P6AXP'
	DB	'EAURayTraceTreadConfig@@H@ZPEAU1@H@std@@@2@@std@@@std@@', 00H
data$r	ENDS
;	COMDAT ??_R1A@?0A@EA@Hitable@@8
rdata$r	SEGMENT
??_R1A@?0A@EA@Hitable@@8 DD imagerel ??_R0?AVHitable@@@8 ; Hitable::`RTTI Base Class Descriptor at (0,-1,0,64)'
	DD	00H
	DD	00H
	DD	0ffffffffH
	DD	00H
	DD	040H
	DD	imagerel ??_R3Hitable@@8
rdata$r	ENDS
;	COMDAT ??_R0?AV_Pad@std@@@8
data$r	SEGMENT
??_R0?AV_Pad@std@@@8 DQ FLAT:??_7type_info@@6B@		; std::_Pad `RTTI Type Descriptor'
	DQ	0000000000000000H
	DB	'.?AV_Pad@std@@', 00H
data$r	ENDS
;	COMDAT ??_R2?$_LaunchPad@V?$unique_ptr@V?$tuple@P6AXPEAURayTraceTreadConfig@@@ZPEAU1@@std@@U?$default_delete@V?$tuple@P6AXPEAURayTraceTreadConfig@@@ZPEAU1@@std@@@2@@std@@@std@@8
rdata$r	SEGMENT
??_R2?$_LaunchPad@V?$unique_ptr@V?$tuple@P6AXPEAURayTraceTreadConfig@@@ZPEAU1@@std@@U?$default_delete@V?$tuple@P6AXPEAURayTraceTreadConfig@@@ZPEAU1@@std@@@2@@std@@@std@@8 DD imagerel ??_R1A@?0A@EA@?$_LaunchPad@V?$unique_ptr@V?$tuple@P6AXPEAURayTraceTreadConfig@@@ZPEAU1@@std@@U?$default_delete@V?$tuple@P6AXPEAURayTraceTreadConfig@@@ZPEAU1@@std@@@2@@std@@@std@@8 ; std::_LaunchPad<std::unique_ptr<std::tuple<void (__cdecl*)(RayTraceTreadConfig *),RayTraceTreadConfig *>,std::default_delete<std::tuple<void (__cdecl*)(RayTraceTreadConfig *),RayTraceTreadConfig *> > > >::`RTTI Base Class Array'
	DD	imagerel ??_R1A@?0A@EA@_Pad@std@@8
	ORG $+3
rdata$r	ENDS
;	COMDAT ??_R0?AVMetal@@@8
data$r	SEGMENT
??_R0?AVMetal@@@8 DQ FLAT:??_7type_info@@6B@		; Metal `RTTI Type Descriptor'
	DQ	0000000000000000H
	DB	'.?AVMetal@@', 00H
data$r	ENDS
;	COMDAT ??_R0?AVDielectric@@@8
data$r	SEGMENT
??_R0?AVDielectric@@@8 DQ FLAT:??_7type_info@@6B@	; Dielectric `RTTI Type Descriptor'
	DQ	0000000000000000H
	DB	'.?AVDielectric@@', 00H
data$r	ENDS
;	COMDAT ??_R2Material@@8
rdata$r	SEGMENT
??_R2Material@@8 DD imagerel ??_R1A@?0A@EA@Material@@8	; Material::`RTTI Base Class Array'
	ORG $+3
rdata$r	ENDS
;	COMDAT ??_R4Hitable@@6B@
rdata$r	SEGMENT
??_R4Hitable@@6B@ DD 01H				; Hitable::`RTTI Complete Object Locator'
	DD	00H
	DD	00H
	DD	imagerel ??_R0?AVHitable@@@8
	DD	imagerel ??_R3Hitable@@8
	DD	imagerel ??_R4Hitable@@6B@
rdata$r	ENDS
;	COMDAT ??_R2Hitable@@8
rdata$r	SEGMENT
??_R2Hitable@@8 DD imagerel ??_R1A@?0A@EA@Hitable@@8	; Hitable::`RTTI Base Class Array'
	ORG $+3
rdata$r	ENDS
;	COMDAT ??_R3Lambertian@@8
rdata$r	SEGMENT
??_R3Lambertian@@8 DD 00H				; Lambertian::`RTTI Class Hierarchy Descriptor'
	DD	00H
	DD	02H
	DD	imagerel ??_R2Lambertian@@8
rdata$r	ENDS
;	COMDAT ??_R0?AVHitableList@@@8
data$r	SEGMENT
??_R0?AVHitableList@@@8 DQ FLAT:??_7type_info@@6B@	; HitableList `RTTI Type Descriptor'
	DQ	0000000000000000H
	DB	'.?AVHitableList@@', 00H
data$r	ENDS
;	COMDAT ??_R1A@?0A@EA@Metal@@8
rdata$r	SEGMENT
??_R1A@?0A@EA@Metal@@8 DD imagerel ??_R0?AVMetal@@@8	; Metal::`RTTI Base Class Descriptor at (0,-1,0,64)'
	DD	01H
	DD	00H
	DD	0ffffffffH
	DD	00H
	DD	040H
	DD	imagerel ??_R3Metal@@8
rdata$r	ENDS
;	COMDAT ??_R4?$_LaunchPad@V?$unique_ptr@V?$tuple@P6AXPEAURayTraceTreadConfig@@H@ZPEAU1@H@std@@U?$default_delete@V?$tuple@P6AXPEAURayTraceTreadConfig@@H@ZPEAU1@H@std@@@2@@std@@@std@@6B@
rdata$r	SEGMENT
??_R4?$_LaunchPad@V?$unique_ptr@V?$tuple@P6AXPEAURayTraceTreadConfig@@H@ZPEAU1@H@std@@U?$default_delete@V?$tuple@P6AXPEAURayTraceTreadConfig@@H@ZPEAU1@H@std@@@2@@std@@@std@@6B@ DD 01H ; std::_LaunchPad<std::unique_ptr<std::tuple<void (__cdecl*)(RayTraceTreadConfig *,int),RayTraceTreadConfig *,int>,std::default_delete<std::tuple<void (__cdecl*)(RayTraceTreadConfig *,int),RayTraceTreadConfig *,int> > > >::`RTTI Complete Object Locator'
	DD	00H
	DD	00H
	DD	imagerel ??_R0?AV?$_LaunchPad@V?$unique_ptr@V?$tuple@P6AXPEAURayTraceTreadConfig@@H@ZPEAU1@H@std@@U?$default_delete@V?$tuple@P6AXPEAURayTraceTreadConfig@@H@ZPEAU1@H@std@@@2@@std@@@std@@@8
	DD	imagerel ??_R3?$_LaunchPad@V?$unique_ptr@V?$tuple@P6AXPEAURayTraceTreadConfig@@H@ZPEAU1@H@std@@U?$default_delete@V?$tuple@P6AXPEAURayTraceTreadConfig@@H@ZPEAU1@H@std@@@2@@std@@@std@@8
	DD	imagerel ??_R4?$_LaunchPad@V?$unique_ptr@V?$tuple@P6AXPEAURayTraceTreadConfig@@H@ZPEAU1@H@std@@U?$default_delete@V?$tuple@P6AXPEAURayTraceTreadConfig@@H@ZPEAU1@H@std@@@2@@std@@@std@@6B@
rdata$r	ENDS
;	COMDAT ??_R4Material@@6B@
rdata$r	SEGMENT
??_R4Material@@6B@ DD 01H				; Material::`RTTI Complete Object Locator'
	DD	00H
	DD	00H
	DD	imagerel ??_R0?AVMaterial@@@8
	DD	imagerel ??_R3Material@@8
	DD	imagerel ??_R4Material@@6B@
rdata$r	ENDS
;	COMDAT ??_R1A@?0A@EA@?$_LaunchPad@V?$unique_ptr@V?$tuple@P6AXPEAURayTraceTreadConfig@@H@ZPEAU1@H@std@@U?$default_delete@V?$tuple@P6AXPEAURayTraceTreadConfig@@H@ZPEAU1@H@std@@@2@@std@@@std@@8
rdata$r	SEGMENT
??_R1A@?0A@EA@?$_LaunchPad@V?$unique_ptr@V?$tuple@P6AXPEAURayTraceTreadConfig@@H@ZPEAU1@H@std@@U?$default_delete@V?$tuple@P6AXPEAURayTraceTreadConfig@@H@ZPEAU1@H@std@@@2@@std@@@std@@8 DD imagerel ??_R0?AV?$_LaunchPad@V?$unique_ptr@V?$tuple@P6AXPEAURayTraceTreadConfig@@H@ZPEAU1@H@std@@U?$default_delete@V?$tuple@P6AXPEAURayTraceTreadConfig@@H@ZPEAU1@H@std@@@2@@std@@@std@@@8 ; std::_LaunchPad<std::unique_ptr<std::tuple<void (__cdecl*)(RayTraceTreadConfig *,int),RayTraceTreadConfig *,int>,std::default_delete<std::tuple<void (__cdecl*)(RayTraceTreadConfig *,int),RayTraceTreadConfig *,int> > > >::`RTTI Base Class Descriptor at (0,-1,0,64)'
	DD	01H
	DD	00H
	DD	0ffffffffH
	DD	00H
	DD	040H
	DD	imagerel ??_R3?$_LaunchPad@V?$unique_ptr@V?$tuple@P6AXPEAURayTraceTreadConfig@@H@ZPEAU1@H@std@@U?$default_delete@V?$tuple@P6AXPEAURayTraceTreadConfig@@H@ZPEAU1@H@std@@@2@@std@@@std@@8
rdata$r	ENDS
;	COMDAT ??_R1A@?0A@EA@Dielectric@@8
rdata$r	SEGMENT
??_R1A@?0A@EA@Dielectric@@8 DD imagerel ??_R0?AVDielectric@@@8 ; Dielectric::`RTTI Base Class Descriptor at (0,-1,0,64)'
	DD	01H
	DD	00H
	DD	0ffffffffH
	DD	00H
	DD	040H
	DD	imagerel ??_R3Dielectric@@8
rdata$r	ENDS
;	COMDAT ??_7Lambertian@@6B@
CONST	SEGMENT
??_7Lambertian@@6B@ DQ FLAT:??_R4Lambertian@@6B@	; Lambertian::`vftable'
	DQ	FLAT:?scatter@Lambertian@@UEBA_NAEBVRay@@AEBUhit_record@@AEAVVec3@@AEAV2@@Z
CONST	ENDS
;	COMDAT ??_R4HitableList@@6B@
rdata$r	SEGMENT
??_R4HitableList@@6B@ DD 01H				; HitableList::`RTTI Complete Object Locator'
	DD	00H
	DD	00H
	DD	imagerel ??_R0?AVHitableList@@@8
	DD	imagerel ??_R3HitableList@@8
	DD	imagerel ??_R4HitableList@@6B@
rdata$r	ENDS
;	COMDAT ??_7Metal@@6B@
CONST	SEGMENT
??_7Metal@@6B@ DQ FLAT:??_R4Metal@@6B@			; Metal::`vftable'
	DQ	FLAT:?scatter@Metal@@UEBA_NAEBVRay@@AEBUhit_record@@AEAVVec3@@AEAV2@@Z
CONST	ENDS
;	COMDAT ??_R1A@?0A@EA@Lambertian@@8
rdata$r	SEGMENT
??_R1A@?0A@EA@Lambertian@@8 DD imagerel ??_R0?AVLambertian@@@8 ; Lambertian::`RTTI Base Class Descriptor at (0,-1,0,64)'
	DD	01H
	DD	00H
	DD	0ffffffffH
	DD	00H
	DD	040H
	DD	imagerel ??_R3Lambertian@@8
rdata$r	ENDS
;	COMDAT ??_R3HitableList@@8
rdata$r	SEGMENT
??_R3HitableList@@8 DD 00H				; HitableList::`RTTI Class Hierarchy Descriptor'
	DD	00H
	DD	02H
	DD	imagerel ??_R2HitableList@@8
rdata$r	ENDS
;	COMDAT ??_R4Metal@@6B@
rdata$r	SEGMENT
??_R4Metal@@6B@ DD 01H					; Metal::`RTTI Complete Object Locator'
	DD	00H
	DD	00H
	DD	imagerel ??_R0?AVMetal@@@8
	DD	imagerel ??_R3Metal@@8
	DD	imagerel ??_R4Metal@@6B@
rdata$r	ENDS
;	COMDAT ??_R3Dielectric@@8
rdata$r	SEGMENT
??_R3Dielectric@@8 DD 00H				; Dielectric::`RTTI Class Hierarchy Descriptor'
	DD	00H
	DD	02H
	DD	imagerel ??_R2Dielectric@@8
rdata$r	ENDS
;	COMDAT ??_R2HitableList@@8
rdata$r	SEGMENT
??_R2HitableList@@8 DD imagerel ??_R1A@?0A@EA@HitableList@@8 ; HitableList::`RTTI Base Class Array'
	DD	imagerel ??_R1A@?0A@EA@Hitable@@8
	ORG $+3
rdata$r	ENDS
;	COMDAT ??_R1A@?0A@EA@?$_LaunchPad@V?$unique_ptr@V?$tuple@P6AXPEAURayTraceTreadConfig@@@ZPEAU1@@std@@U?$default_delete@V?$tuple@P6AXPEAURayTraceTreadConfig@@@ZPEAU1@@std@@@2@@std@@@std@@8
rdata$r	SEGMENT
??_R1A@?0A@EA@?$_LaunchPad@V?$unique_ptr@V?$tuple@P6AXPEAURayTraceTreadConfig@@@ZPEAU1@@std@@U?$default_delete@V?$tuple@P6AXPEAURayTraceTreadConfig@@@ZPEAU1@@std@@@2@@std@@@std@@8 DD imagerel ??_R0?AV?$_LaunchPad@V?$unique_ptr@V?$tuple@P6AXPEAURayTraceTreadConfig@@@ZPEAU1@@std@@U?$default_delete@V?$tuple@P6AXPEAURayTraceTreadConfig@@@ZPEAU1@@std@@@2@@std@@@std@@@8 ; std::_LaunchPad<std::unique_ptr<std::tuple<void (__cdecl*)(RayTraceTreadConfig *),RayTraceTreadConfig *>,std::default_delete<std::tuple<void (__cdecl*)(RayTraceTreadConfig *),RayTraceTreadConfig *> > > >::`RTTI Base Class Descriptor at (0,-1,0,64)'
	DD	01H
	DD	00H
	DD	0ffffffffH
	DD	00H
	DD	040H
	DD	imagerel ??_R3?$_LaunchPad@V?$unique_ptr@V?$tuple@P6AXPEAURayTraceTreadConfig@@@ZPEAU1@@std@@U?$default_delete@V?$tuple@P6AXPEAURayTraceTreadConfig@@@ZPEAU1@@std@@@2@@std@@@std@@8
rdata$r	ENDS
;	COMDAT ??_R2Metal@@8
rdata$r	SEGMENT
??_R2Metal@@8 DD imagerel ??_R1A@?0A@EA@Metal@@8	; Metal::`RTTI Base Class Array'
	DD	imagerel ??_R1A@?0A@EA@Material@@8
	ORG $+3
rdata$r	ENDS
;	COMDAT ??_R4Dielectric@@6B@
rdata$r	SEGMENT
??_R4Dielectric@@6B@ DD 01H				; Dielectric::`RTTI Complete Object Locator'
	DD	00H
	DD	00H
	DD	imagerel ??_R0?AVDielectric@@@8
	DD	imagerel ??_R3Dielectric@@8
	DD	imagerel ??_R4Dielectric@@6B@
rdata$r	ENDS
;	COMDAT ??_7?$_LaunchPad@V?$unique_ptr@V?$tuple@P6AXPEAURayTraceTreadConfig@@@ZPEAU1@@std@@U?$default_delete@V?$tuple@P6AXPEAURayTraceTreadConfig@@@ZPEAU1@@std@@@2@@std@@@std@@6B@
CONST	SEGMENT
??_7?$_LaunchPad@V?$unique_ptr@V?$tuple@P6AXPEAURayTraceTreadConfig@@@ZPEAU1@@std@@U?$default_delete@V?$tuple@P6AXPEAURayTraceTreadConfig@@@ZPEAU1@@std@@@2@@std@@@std@@6B@ DQ FLAT:??_R4?$_LaunchPad@V?$unique_ptr@V?$tuple@P6AXPEAURayTraceTreadConfig@@@ZPEAU1@@std@@U?$default_delete@V?$tuple@P6AXPEAURayTraceTreadConfig@@@ZPEAU1@@std@@@2@@std@@@std@@6B@ ; std::_LaunchPad<std::unique_ptr<std::tuple<void (__cdecl*)(RayTraceTreadConfig *),RayTraceTreadConfig *>,std::default_delete<std::tuple<void (__cdecl*)(RayTraceTreadConfig *),RayTraceTreadConfig *> > > >::`vftable'
	DQ	FLAT:?_Go@?$_LaunchPad@V?$unique_ptr@V?$tuple@P6AXPEAURayTraceTreadConfig@@@ZPEAU1@@std@@U?$default_delete@V?$tuple@P6AXPEAURayTraceTreadConfig@@@ZPEAU1@@std@@@2@@std@@@std@@UEAAXXZ
CONST	ENDS
;	COMDAT ??_R3?$_LaunchPad@V?$unique_ptr@V?$tuple@P6AXPEAURayTraceTreadConfig@@H@ZPEAU1@H@std@@U?$default_delete@V?$tuple@P6AXPEAURayTraceTreadConfig@@H@ZPEAU1@H@std@@@2@@std@@@std@@8
rdata$r	SEGMENT
??_R3?$_LaunchPad@V?$unique_ptr@V?$tuple@P6AXPEAURayTraceTreadConfig@@H@ZPEAU1@H@std@@U?$default_delete@V?$tuple@P6AXPEAURayTraceTreadConfig@@H@ZPEAU1@H@std@@@2@@std@@@std@@8 DD 00H ; std::_LaunchPad<std::unique_ptr<std::tuple<void (__cdecl*)(RayTraceTreadConfig *,int),RayTraceTreadConfig *,int>,std::default_delete<std::tuple<void (__cdecl*)(RayTraceTreadConfig *,int),RayTraceTreadConfig *,int> > > >::`RTTI Class Hierarchy Descriptor'
	DD	00H
	DD	02H
	DD	imagerel ??_R2?$_LaunchPad@V?$unique_ptr@V?$tuple@P6AXPEAURayTraceTreadConfig@@H@ZPEAU1@H@std@@U?$default_delete@V?$tuple@P6AXPEAURayTraceTreadConfig@@H@ZPEAU1@H@std@@@2@@std@@@std@@8
rdata$r	ENDS
;	COMDAT ??_7Hitable@@6B@
CONST	SEGMENT
??_7Hitable@@6B@ DQ FLAT:??_R4Hitable@@6B@		; Hitable::`vftable'
	DQ	FLAT:_purecall
CONST	ENDS
;	COMDAT ??_7Dielectric@@6B@
CONST	SEGMENT
??_7Dielectric@@6B@ DQ FLAT:??_R4Dielectric@@6B@	; Dielectric::`vftable'
	DQ	FLAT:?scatter@Dielectric@@UEBA_NAEBVRay@@AEBUhit_record@@AEAVVec3@@AEAV2@@Z
CONST	ENDS
;	COMDAT ??_R1A@?0A@EA@_Pad@std@@8
rdata$r	SEGMENT
??_R1A@?0A@EA@_Pad@std@@8 DD imagerel ??_R0?AV_Pad@std@@@8 ; std::_Pad::`RTTI Base Class Descriptor at (0,-1,0,64)'
	DD	00H
	DD	00H
	DD	0ffffffffH
	DD	00H
	DD	040H
	DD	imagerel ??_R3_Pad@std@@8
rdata$r	ENDS
;	COMDAT ??_R1A@?0A@EA@HitableList@@8
rdata$r	SEGMENT
??_R1A@?0A@EA@HitableList@@8 DD imagerel ??_R0?AVHitableList@@@8 ; HitableList::`RTTI Base Class Descriptor at (0,-1,0,64)'
	DD	01H
	DD	00H
	DD	0ffffffffH
	DD	00H
	DD	040H
	DD	imagerel ??_R3HitableList@@8
rdata$r	ENDS
;	COMDAT ??_R4?$_LaunchPad@V?$unique_ptr@V?$tuple@P6AXPEAURayTraceTreadConfig@@@ZPEAU1@@std@@U?$default_delete@V?$tuple@P6AXPEAURayTraceTreadConfig@@@ZPEAU1@@std@@@2@@std@@@std@@6B@
rdata$r	SEGMENT
??_R4?$_LaunchPad@V?$unique_ptr@V?$tuple@P6AXPEAURayTraceTreadConfig@@@ZPEAU1@@std@@U?$default_delete@V?$tuple@P6AXPEAURayTraceTreadConfig@@@ZPEAU1@@std@@@2@@std@@@std@@6B@ DD 01H ; std::_LaunchPad<std::unique_ptr<std::tuple<void (__cdecl*)(RayTraceTreadConfig *),RayTraceTreadConfig *>,std::default_delete<std::tuple<void (__cdecl*)(RayTraceTreadConfig *),RayTraceTreadConfig *> > > >::`RTTI Complete Object Locator'
	DD	00H
	DD	00H
	DD	imagerel ??_R0?AV?$_LaunchPad@V?$unique_ptr@V?$tuple@P6AXPEAURayTraceTreadConfig@@@ZPEAU1@@std@@U?$default_delete@V?$tuple@P6AXPEAURayTraceTreadConfig@@@ZPEAU1@@std@@@2@@std@@@std@@@8
	DD	imagerel ??_R3?$_LaunchPad@V?$unique_ptr@V?$tuple@P6AXPEAURayTraceTreadConfig@@@ZPEAU1@@std@@U?$default_delete@V?$tuple@P6AXPEAURayTraceTreadConfig@@@ZPEAU1@@std@@@2@@std@@@std@@8
	DD	imagerel ??_R4?$_LaunchPad@V?$unique_ptr@V?$tuple@P6AXPEAURayTraceTreadConfig@@@ZPEAU1@@std@@U?$default_delete@V?$tuple@P6AXPEAURayTraceTreadConfig@@@ZPEAU1@@std@@@2@@std@@@std@@6B@
rdata$r	ENDS
;	COMDAT ??_R4Lambertian@@6B@
rdata$r	SEGMENT
??_R4Lambertian@@6B@ DD 01H				; Lambertian::`RTTI Complete Object Locator'
	DD	00H
	DD	00H
	DD	imagerel ??_R0?AVLambertian@@@8
	DD	imagerel ??_R3Lambertian@@8
	DD	imagerel ??_R4Lambertian@@6B@
rdata$r	ENDS
;	COMDAT ??_7Sphere@@6B@
CONST	SEGMENT
??_7Sphere@@6B@ DQ FLAT:??_R4Sphere@@6B@		; Sphere::`vftable'
	DQ	FLAT:?hit@Sphere@@UEBA_NAEBVRay@@MMAEAUhit_record@@@Z
CONST	ENDS
;	COMDAT ??_R2Sphere@@8
rdata$r	SEGMENT
??_R2Sphere@@8 DD imagerel ??_R1A@?0A@EA@Sphere@@8	; Sphere::`RTTI Base Class Array'
	DD	imagerel ??_R1A@?0A@EA@Hitable@@8
	ORG $+3
rdata$r	ENDS
;	COMDAT ??_R2Lambertian@@8
rdata$r	SEGMENT
??_R2Lambertian@@8 DD imagerel ??_R1A@?0A@EA@Lambertian@@8 ; Lambertian::`RTTI Base Class Array'
	DD	imagerel ??_R1A@?0A@EA@Material@@8
	ORG $+3
rdata$r	ENDS
;	COMDAT ??_R3?$_LaunchPad@V?$unique_ptr@V?$tuple@P6AXPEAURayTraceTreadConfig@@@ZPEAU1@@std@@U?$default_delete@V?$tuple@P6AXPEAURayTraceTreadConfig@@@ZPEAU1@@std@@@2@@std@@@std@@8
rdata$r	SEGMENT
??_R3?$_LaunchPad@V?$unique_ptr@V?$tuple@P6AXPEAURayTraceTreadConfig@@@ZPEAU1@@std@@U?$default_delete@V?$tuple@P6AXPEAURayTraceTreadConfig@@@ZPEAU1@@std@@@2@@std@@@std@@8 DD 00H ; std::_LaunchPad<std::unique_ptr<std::tuple<void (__cdecl*)(RayTraceTreadConfig *),RayTraceTreadConfig *>,std::default_delete<std::tuple<void (__cdecl*)(RayTraceTreadConfig *),RayTraceTreadConfig *> > > >::`RTTI Class Hierarchy Descriptor'
	DD	00H
	DD	02H
	DD	imagerel ??_R2?$_LaunchPad@V?$unique_ptr@V?$tuple@P6AXPEAURayTraceTreadConfig@@@ZPEAU1@@std@@U?$default_delete@V?$tuple@P6AXPEAURayTraceTreadConfig@@@ZPEAU1@@std@@@2@@std@@@std@@8
rdata$r	ENDS
;	COMDAT ??_R4Sphere@@6B@
rdata$r	SEGMENT
??_R4Sphere@@6B@ DD 01H					; Sphere::`RTTI Complete Object Locator'
	DD	00H
	DD	00H
	DD	imagerel ??_R0?AVSphere@@@8
	DD	imagerel ??_R3Sphere@@8
	DD	imagerel ??_R4Sphere@@6B@
rdata$r	ENDS
;	COMDAT ??_R2Dielectric@@8
rdata$r	SEGMENT
??_R2Dielectric@@8 DD imagerel ??_R1A@?0A@EA@Dielectric@@8 ; Dielectric::`RTTI Base Class Array'
	DD	imagerel ??_R1A@?0A@EA@Material@@8
	ORG $+3
rdata$r	ENDS
;	COMDAT ??_R3Metal@@8
rdata$r	SEGMENT
??_R3Metal@@8 DD 00H					; Metal::`RTTI Class Hierarchy Descriptor'
	DD	00H
	DD	02H
	DD	imagerel ??_R2Metal@@8
rdata$r	ENDS
;	COMDAT ??_R1A@?0A@EA@Material@@8
rdata$r	SEGMENT
??_R1A@?0A@EA@Material@@8 DD imagerel ??_R0?AVMaterial@@@8 ; Material::`RTTI Base Class Descriptor at (0,-1,0,64)'
	DD	00H
	DD	00H
	DD	0ffffffffH
	DD	00H
	DD	040H
	DD	imagerel ??_R3Material@@8
rdata$r	ENDS
;	COMDAT ??_R0?AVLambertian@@@8
data$r	SEGMENT
??_R0?AVLambertian@@@8 DQ FLAT:??_7type_info@@6B@	; Lambertian `RTTI Type Descriptor'
	DQ	0000000000000000H
	DB	'.?AVLambertian@@', 00H
data$r	ENDS
;	COMDAT ??_R3Material@@8
rdata$r	SEGMENT
??_R3Material@@8 DD 00H					; Material::`RTTI Class Hierarchy Descriptor'
	DD	00H
	DD	01H
	DD	imagerel ??_R2Material@@8
rdata$r	ENDS
;	COMDAT ??_R0?AVSphere@@@8
data$r	SEGMENT
??_R0?AVSphere@@@8 DQ FLAT:??_7type_info@@6B@		; Sphere `RTTI Type Descriptor'
	DQ	0000000000000000H
	DB	'.?AVSphere@@', 00H
data$r	ENDS
;	COMDAT ??_C@_0BD@OLBABOEK@vector?$DMT?$DO?5too?5long@
CONST	SEGMENT
??_C@_0BD@OLBABOEK@vector?$DMT?$DO?5too?5long@ DB 'vector<T> too long', 00H ; `string'
CONST	ENDS
PUBLIC	??$?0AEAH@?$_Tuple_val@H@std@@QEAA@AEAH@Z	; std::_Tuple_val<int>::_Tuple_val<int><int &>
PUBLIC	??$?0U_Exact_args_t@std@@AEAH$$V$0A@@?$tuple@H@std@@QEAA@U_Exact_args_t@1@AEAH@Z ; std::tuple<int>::tuple<int><std::_Exact_args_t,int &,0>
PUBLIC	??$?0PEAURayTraceTreadConfig@@@?$_Tuple_val@PEAURayTraceTreadConfig@@@std@@QEAA@$$QEAPEAURayTraceTreadConfig@@@Z ; std::_Tuple_val<RayTraceTreadConfig *>::_Tuple_val<RayTraceTreadConfig *><RayTraceTreadConfig *>
PUBLIC	??$forward@AEAPEAV?$tuple@P6AXPEAURayTraceTreadConfig@@H@ZPEAU1@H@std@@@std@@YAAEAPEAV?$tuple@P6AXPEAURayTraceTreadConfig@@H@ZPEAU1@H@0@AEAPEAV10@@Z ; std::forward<std::tuple<void (__cdecl*)(RayTraceTreadConfig *,int),RayTraceTreadConfig *,int> * &>
PUBLIC	??$?0AEAPEAV?$tuple@P6AXPEAURayTraceTreadConfig@@H@ZPEAU1@H@std@@@?$_Compressed_pair@U?$default_delete@V?$tuple@P6AXPEAURayTraceTreadConfig@@H@ZPEAU1@H@std@@@std@@PEAV?$tuple@P6AXPEAURayTraceTreadConfig@@H@ZPEAU1@H@2@$00@std@@QEAA@U_Zero_then_variadic_args_t@1@AEAPEAV?$tuple@P6AXPEAURayTraceTreadConfig@@H@ZPEAU1@H@1@@Z ; std::_Compressed_pair<std::default_delete<std::tuple<void (__cdecl*)(RayTraceTreadConfig *,int),RayTraceTreadConfig *,int> >,std::tuple<void (__cdecl*)(RayTraceTreadConfig *,int),RayTraceTreadConfig *,int> *,1>::_Compressed_pair<std::default_delete<std::tuple<void (__cdecl*)(RayTraceTreadConfig *,int),RayTraceTreadConfig *,int> >,std::tuple<void (__cdecl*)(RayTraceTreadConfig *,int),RayTraceTreadConfig *,int> *,1><std::tuple<void (__cdecl*)(RayTraceTreadConfig *,int),RayTraceTreadConfig *,int> * &>
PUBLIC	??$?0A6AXPEAURayTraceTreadConfig@@H@Z@?$_Tuple_val@P6AXPEAURayTraceTreadConfig@@H@Z@std@@QEAA@A6AXPEAURayTraceTreadConfig@@H@Z@Z ; std::_Tuple_val<void (__cdecl*)(RayTraceTreadConfig *,int)>::_Tuple_val<void (__cdecl*)(RayTraceTreadConfig *,int)><void (__cdecl&)(RayTraceTreadConfig *,int)>
PUBLIC	??$?0U_Exact_args_t@std@@PEAURayTraceTreadConfig@@AEAH$0A@@?$tuple@PEAURayTraceTreadConfig@@H@std@@QEAA@U_Exact_args_t@1@$$QEAPEAURayTraceTreadConfig@@AEAH@Z ; std::tuple<RayTraceTreadConfig *,int>::tuple<RayTraceTreadConfig *,int><std::_Exact_args_t,RayTraceTreadConfig *,int &,0>
PUBLIC	??$?0U_Exact_args_t@std@@$0A@@?$tuple@$$V@std@@QEAA@U_Exact_args_t@1@@Z ; std::tuple<>::tuple<><std::_Exact_args_t,0>
PUBLIC	??$_Call@P6AXPEAURayTraceTreadConfig@@H@ZPEAU1@H@_Invoker_functor@std@@SAX$$QEAP6AXPEAURayTraceTreadConfig@@H@Z$$QEAPEAU2@$$QEAH@Z ; std::_Invoker_functor::_Call<void (__cdecl*)(RayTraceTreadConfig *,int),RayTraceTreadConfig *,int>
PUBLIC	??$forward@P6AXPEAURayTraceTreadConfig@@H@Z@std@@YA$$QEAP6AXPEAURayTraceTreadConfig@@H@ZAEAP6AX0H@Z@Z ; std::forward<void (__cdecl*)(RayTraceTreadConfig *,int)>
PUBLIC	??$?0U?$default_delete@V?$tuple@P6AXPEAURayTraceTreadConfig@@H@ZPEAU1@H@std@@@std@@AEAPEAV?$tuple@P6AXPEAURayTraceTreadConfig@@H@ZPEAU1@H@1@@?$_Compressed_pair@U?$default_delete@V?$tuple@P6AXPEAURayTraceTreadConfig@@H@ZPEAU1@H@std@@@std@@PEAV?$tuple@P6AXPEAURayTraceTreadConfig@@H@ZPEAU1@H@2@$00@std@@QEAA@U_One_then_variadic_args_t@1@$$QEAU?$default_delete@V?$tuple@P6AXPEAURayTraceTreadConfig@@H@ZPEAU1@H@std@@@1@AEAPEAV?$tuple@P6AXPEAURayTraceTreadConfig@@H@ZPEAU1@H@1@@Z ; std::_Compressed_pair<std::default_delete<std::tuple<void (__cdecl*)(RayTraceTreadConfig *,int),RayTraceTreadConfig *,int> >,std::tuple<void (__cdecl*)(RayTraceTreadConfig *,int),RayTraceTreadConfig *,int> *,1>::_Compressed_pair<std::default_delete<std::tuple<void (__cdecl*)(RayTraceTreadConfig *,int),RayTraceTreadConfig *,int> >,std::tuple<void (__cdecl*)(RayTraceTreadConfig *,int),RayTraceTreadConfig *,int> *,1><std::default_delete<std::tuple<void (__cdecl*)(RayTraceTreadConfig *,int),RayTraceTreadConfig *,int> >,std::tuple<void (__cdecl*)(RayTraceTreadConfig *,int),RayTraceTreadConfig *,int> * &>
PUBLIC	??$invoke@P6AXPEAURayTraceTreadConfig@@H@ZPEAU1@H@std@@YAX$$QEAP6AXPEAURayTraceTreadConfig@@H@Z$$QEAPEAU1@$$QEAH@Z ; std::invoke<void (__cdecl*)(RayTraceTreadConfig *,int),RayTraceTreadConfig *,int>
PUBLIC	??$get@$01P6AXPEAURayTraceTreadConfig@@H@ZPEAU1@H@std@@YAAEAHAEAV?$tuple@P6AXPEAURayTraceTreadConfig@@H@ZPEAU1@H@0@@Z ; std::get<2,void (__cdecl*)(RayTraceTreadConfig *,int),RayTraceTreadConfig *,int>
PUBLIC	??$move@AEAPEAURayTraceTreadConfig@@@std@@YA$$QEAPEAURayTraceTreadConfig@@AEAPEAU1@@Z ; std::move<RayTraceTreadConfig * &>
PUBLIC	??$get@$00P6AXPEAURayTraceTreadConfig@@H@ZPEAU1@H@std@@YAAEAPEAURayTraceTreadConfig@@AEAV?$tuple@P6AXPEAURayTraceTreadConfig@@H@ZPEAU1@H@0@@Z ; std::get<1,void (__cdecl*)(RayTraceTreadConfig *,int),RayTraceTreadConfig *,int>
PUBLIC	??$move@AEAP6AXPEAURayTraceTreadConfig@@H@Z@std@@YA$$QEAP6AXPEAURayTraceTreadConfig@@H@ZAEAP6AX0H@Z@Z ; std::move<void (__cdecl*&)(RayTraceTreadConfig *,int)>
PUBLIC	??$get@$0A@P6AXPEAURayTraceTreadConfig@@H@ZPEAU1@H@std@@YAAEAP6AXPEAURayTraceTreadConfig@@H@ZAEAV?$tuple@P6AXPEAURayTraceTreadConfig@@H@ZPEAU1@H@0@@Z ; std::get<0,void (__cdecl*)(RayTraceTreadConfig *,int),RayTraceTreadConfig *,int>
PUBLIC	??$_Emplace_back@Vthread@std@@@?$_Uninitialized_backout_al@PEAVthread@std@@V?$allocator@Vthread@std@@@2@@std@@QEAAX$$QEAVthread@1@@Z ; std::_Uninitialized_backout_al<std::thread *,std::allocator<std::thread> >::_Emplace_back<std::thread>
PUBLIC	??$?0PEAV?$tuple@P6AXPEAURayTraceTreadConfig@@H@ZPEAU1@H@std@@@?$_Unique_ptr_base@V?$tuple@P6AXPEAURayTraceTreadConfig@@H@ZPEAU1@H@std@@U?$default_delete@V?$tuple@P6AXPEAURayTraceTreadConfig@@H@ZPEAU1@H@std@@@2@@std@@QEAA@PEAV?$tuple@P6AXPEAURayTraceTreadConfig@@H@ZPEAU1@H@1@@Z ; std::_Unique_ptr_base<std::tuple<void (__cdecl*)(RayTraceTreadConfig *,int),RayTraceTreadConfig *,int>,std::default_delete<std::tuple<void (__cdecl*)(RayTraceTreadConfig *,int),RayTraceTreadConfig *,int> > >::_Unique_ptr_base<std::tuple<void (__cdecl*)(RayTraceTreadConfig *,int),RayTraceTreadConfig *,int>,std::default_delete<std::tuple<void (__cdecl*)(RayTraceTreadConfig *,int),RayTraceTreadConfig *,int> > ><std::tuple<void (__cdecl*)(RayTraceTreadConfig *,int),RayTraceTreadConfig *,int> *>
PUBLIC	??$?0U_Exact_args_t@std@@A6AXPEAURayTraceTreadConfig@@H@ZPEAU2@AEAH$0A@@?$tuple@P6AXPEAURayTraceTreadConfig@@H@ZPEAU1@H@std@@QEAA@U_Exact_args_t@1@A6AXPEAURayTraceTreadConfig@@H@Z$$QEAPEAU3@AEAH@Z ; std::tuple<void (__cdecl*)(RayTraceTreadConfig *,int),RayTraceTreadConfig *,int>::tuple<void (__cdecl*)(RayTraceTreadConfig *,int),RayTraceTreadConfig *,int><std::_Exact_args_t,void (__cdecl&)(RayTraceTreadConfig *,int),RayTraceTreadConfig *,int &,0>
PUBLIC	??0?$_Uninitialized_backout_al@PEAVthread@std@@V?$allocator@Vthread@std@@@2@@std@@QEAA@PEAVthread@1@AEAV?$allocator@Vthread@std@@@1@@Z ; std::_Uninitialized_backout_al<std::thread *,std::allocator<std::thread> >::_Uninitialized_backout_al<std::thread *,std::allocator<std::thread> >
PUBLIC	??1?$_Uninitialized_backout_al@PEAVthread@std@@V?$allocator@Vthread@std@@@2@@std@@QEAA@XZ ; std::_Uninitialized_backout_al<std::thread *,std::allocator<std::thread> >::~_Uninitialized_backout_al<std::thread *,std::allocator<std::thread> >
PUBLIC	?_Release@?$_Uninitialized_backout_al@PEAVthread@std@@V?$allocator@Vthread@std@@@2@@std@@QEAAPEAVthread@2@XZ ; std::_Uninitialized_backout_al<std::thread *,std::allocator<std::thread> >::_Release
PUBLIC	??_Gthread@std@@QEAAPEAXI@Z			; std::thread::`scalar deleting destructor'
PUBLIC	??$?0PEAV?$tuple@P6AXPEAURayTraceTreadConfig@@H@ZPEAU1@H@std@@U?$default_delete@V?$tuple@P6AXPEAURayTraceTreadConfig@@H@ZPEAU1@H@std@@@1@@?$_Unique_ptr_base@V?$tuple@P6AXPEAURayTraceTreadConfig@@H@ZPEAU1@H@std@@U?$default_delete@V?$tuple@P6AXPEAURayTraceTreadConfig@@H@ZPEAU1@H@std@@@2@@std@@QEAA@PEAV?$tuple@P6AXPEAURayTraceTreadConfig@@H@ZPEAU1@H@1@$$QEAU?$default_delete@V?$tuple@P6AXPEAURayTraceTreadConfig@@H@ZPEAU1@H@std@@@1@@Z ; std::_Unique_ptr_base<std::tuple<void (__cdecl*)(RayTraceTreadConfig *,int),RayTraceTreadConfig *,int>,std::default_delete<std::tuple<void (__cdecl*)(RayTraceTreadConfig *,int),RayTraceTreadConfig *,int> > >::_Unique_ptr_base<std::tuple<void (__cdecl*)(RayTraceTreadConfig *,int),RayTraceTreadConfig *,int>,std::default_delete<std::tuple<void (__cdecl*)(RayTraceTreadConfig *,int),RayTraceTreadConfig *,int> > ><std::tuple<void (__cdecl*)(RayTraceTreadConfig *,int),RayTraceTreadConfig *,int> *,std::default_delete<std::tuple<void (__cdecl*)(RayTraceTreadConfig *,int),RayTraceTreadConfig *,int> > >
PUBLIC	??$forward@U?$default_delete@V?$tuple@P6AXPEAURayTraceTreadConfig@@H@ZPEAU1@H@std@@@std@@@std@@YA$$QEAU?$default_delete@V?$tuple@P6AXPEAURayTraceTreadConfig@@H@ZPEAU1@H@std@@@0@AEAU10@@Z ; std::forward<std::default_delete<std::tuple<void (__cdecl*)(RayTraceTreadConfig *,int),RayTraceTreadConfig *,int> > >
PUBLIC	??$_Execute@$0A@$00$01@?$_LaunchPad@V?$unique_ptr@V?$tuple@P6AXPEAURayTraceTreadConfig@@H@ZPEAU1@H@std@@U?$default_delete@V?$tuple@P6AXPEAURayTraceTreadConfig@@H@ZPEAU1@H@std@@@2@@std@@@std@@CAXAEAV?$tuple@P6AXPEAURayTraceTreadConfig@@H@ZPEAU1@H@1@U?$integer_sequence@_K$0A@$00$01@1@@Z ; std::_LaunchPad<std::unique_ptr<std::tuple<void (__cdecl*)(RayTraceTreadConfig *,int),RayTraceTreadConfig *,int>,std::default_delete<std::tuple<void (__cdecl*)(RayTraceTreadConfig *,int),RayTraceTreadConfig *,int> > > >::_Execute<0,1,2>
PUBLIC	??$_Seek_wrapped@Vthread@std@@@std@@YAXAEAPEAVthread@0@QEAV10@@Z ; std::_Seek_wrapped<std::thread>
PUBLIC	??$_Uninitialized_move_al_unchecked@PEAVthread@std@@PEAV12@V?$allocator@Vthread@std@@@2@@std@@YAPEAVthread@0@PEAV10@QEAV10@1AEAV?$allocator@Vthread@std@@@0@U_General_ptr_iterator_tag@0@U_Unused_parameter@0@@Z ; std::_Uninitialized_move_al_unchecked<std::thread *,std::thread *,std::allocator<std::thread> >
PUBLIC	??$_Ptr_move_cat@Vthread@std@@V12@@std@@YA?AU_General_ptr_iterator_tag@0@AEBQEAVthread@0@0@Z ; std::_Ptr_move_cat<std::thread,std::thread>
PUBLIC	??$_Get_unwrapped_n@Vthread@std@@_J$0A@@std@@YAPEAVthread@0@QEAV10@_J@Z ; std::_Get_unwrapped_n<std::thread,__int64,0>
PUBLIC	??$_Idl_distance1@PEAVthread@std@@PEAV12@@std@@YA_JAEBQEAVthread@0@0Urandom_access_iterator_tag@0@@Z ; std::_Idl_distance1<std::thread *,std::thread *>
PUBLIC	??$_Get_unwrapped@Vthread@std@@@std@@YAPEAVthread@0@QEAV10@@Z ; std::_Get_unwrapped<std::thread>
PUBLIC	??$destroy@Vthread@std@@@?$_Default_allocator_traits@V?$allocator@Vthread@std@@@std@@@std@@SAXAEAV?$allocator@Vthread@std@@@1@QEAVthread@1@@Z ; std::_Default_allocator_traits<std::allocator<std::thread> >::destroy<std::thread>
PUBLIC	??$?0U?$integral_constant@_N$00@std@@@_Unused_parameter@std@@QEAA@$$QEAU?$integral_constant@_N$00@1@@Z ; std::_Unused_parameter::_Unused_parameter<std::integral_constant<bool,1> >
PUBLIC	??$?0V?$unique_ptr@V?$tuple@P6AXPEAURayTraceTreadConfig@@H@ZPEAU1@H@std@@U?$default_delete@V?$tuple@P6AXPEAURayTraceTreadConfig@@H@ZPEAU1@H@std@@@2@@std@@@?$_LaunchPad@V?$unique_ptr@V?$tuple@P6AXPEAURayTraceTreadConfig@@H@ZPEAU1@H@std@@U?$default_delete@V?$tuple@P6AXPEAURayTraceTreadConfig@@H@ZPEAU1@H@std@@@2@@std@@@std@@QEAA@$$QEAV?$unique_ptr@V?$tuple@P6AXPEAURayTraceTreadConfig@@H@ZPEAU1@H@std@@U?$default_delete@V?$tuple@P6AXPEAURayTraceTreadConfig@@H@ZPEAU1@H@std@@@2@@1@@Z ; std::_LaunchPad<std::unique_ptr<std::tuple<void (__cdecl*)(RayTraceTreadConfig *,int),RayTraceTreadConfig *,int>,std::default_delete<std::tuple<void (__cdecl*)(RayTraceTreadConfig *,int),RayTraceTreadConfig *,int> > > >::_LaunchPad<std::unique_ptr<std::tuple<void (__cdecl*)(RayTraceTreadConfig *,int),RayTraceTreadConfig *,int>,std::default_delete<std::tuple<void (__cdecl*)(RayTraceTreadConfig *,int),RayTraceTreadConfig *,int> > > ><std::unique_ptr<std::tuple<void (__cdecl*)(RayTraceTreadConfig *,int),RayTraceTreadConfig *,int>,std::default_delete<std::tuple<void (__cdecl*)(RayTraceTreadConfig *,int),RayTraceTreadConfig *,int> > > >
PUBLIC	??$forward@V?$unique_ptr@V?$tuple@P6AXPEAURayTraceTreadConfig@@H@ZPEAU1@H@std@@U?$default_delete@V?$tuple@P6AXPEAURayTraceTreadConfig@@H@ZPEAU1@H@std@@@2@@std@@@std@@YA$$QEAV?$unique_ptr@V?$tuple@P6AXPEAURayTraceTreadConfig@@H@ZPEAU1@H@std@@U?$default_delete@V?$tuple@P6AXPEAURayTraceTreadConfig@@H@ZPEAU1@H@std@@@2@@0@AEAV10@@Z ; std::forward<std::unique_ptr<std::tuple<void (__cdecl*)(RayTraceTreadConfig *,int),RayTraceTreadConfig *,int>,std::default_delete<std::tuple<void (__cdecl*)(RayTraceTreadConfig *,int),RayTraceTreadConfig *,int> > > >
PUBLIC	??$?0U?$default_delete@V?$tuple@P6AXPEAURayTraceTreadConfig@@H@ZPEAU1@H@std@@@std@@$0A@@?$unique_ptr@V?$tuple@P6AXPEAURayTraceTreadConfig@@H@ZPEAU1@H@std@@U?$default_delete@V?$tuple@P6AXPEAURayTraceTreadConfig@@H@ZPEAU1@H@std@@@2@@std@@QEAA@PEAV?$tuple@P6AXPEAURayTraceTreadConfig@@H@ZPEAU1@H@1@@Z ; std::unique_ptr<std::tuple<void (__cdecl*)(RayTraceTreadConfig *,int),RayTraceTreadConfig *,int>,std::default_delete<std::tuple<void (__cdecl*)(RayTraceTreadConfig *,int),RayTraceTreadConfig *,int> > >::unique_ptr<std::tuple<void (__cdecl*)(RayTraceTreadConfig *,int),RayTraceTreadConfig *,int>,std::default_delete<std::tuple<void (__cdecl*)(RayTraceTreadConfig *,int),RayTraceTreadConfig *,int> > ><std::default_delete<std::tuple<void (__cdecl*)(RayTraceTreadConfig *,int),RayTraceTreadConfig *,int> >,0>
PUBLIC	??$?0A6AXPEAURayTraceTreadConfig@@H@ZPEAU0@AEAH$0A@@?$tuple@P6AXPEAURayTraceTreadConfig@@H@ZPEAU1@H@std@@QEAA@A6AXPEAURayTraceTreadConfig@@H@Z$$QEAPEAU2@AEAH@Z ; std::tuple<void (__cdecl*)(RayTraceTreadConfig *,int),RayTraceTreadConfig *,int>::tuple<void (__cdecl*)(RayTraceTreadConfig *,int),RayTraceTreadConfig *,int><void (__cdecl&)(RayTraceTreadConfig *,int),RayTraceTreadConfig *,int &,0>
PUBLIC	?_Get_second@?$_Compressed_pair@U?$default_delete@V?$tuple@P6AXPEAURayTraceTreadConfig@@H@ZPEAU1@H@std@@@std@@PEAV?$tuple@P6AXPEAURayTraceTreadConfig@@H@ZPEAU1@H@2@$00@std@@QEAAAEAPEAV?$tuple@P6AXPEAURayTraceTreadConfig@@H@ZPEAU1@H@2@XZ ; std::_Compressed_pair<std::default_delete<std::tuple<void (__cdecl*)(RayTraceTreadConfig *,int),RayTraceTreadConfig *,int> >,std::tuple<void (__cdecl*)(RayTraceTreadConfig *,int),RayTraceTreadConfig *,int> *,1>::_Get_second
PUBLIC	?_Myptr@?$_Unique_ptr_base@V?$tuple@P6AXPEAURayTraceTreadConfig@@H@ZPEAU1@H@std@@U?$default_delete@V?$tuple@P6AXPEAURayTraceTreadConfig@@H@ZPEAU1@H@std@@@2@@std@@QEAAAEAPEAV?$tuple@P6AXPEAURayTraceTreadConfig@@H@ZPEAU1@H@2@XZ ; std::_Unique_ptr_base<std::tuple<void (__cdecl*)(RayTraceTreadConfig *,int),RayTraceTreadConfig *,int>,std::default_delete<std::tuple<void (__cdecl*)(RayTraceTreadConfig *,int),RayTraceTreadConfig *,int> > >::_Myptr
PUBLIC	?release@?$unique_ptr@V?$tuple@P6AXPEAURayTraceTreadConfig@@H@ZPEAU1@H@std@@U?$default_delete@V?$tuple@P6AXPEAURayTraceTreadConfig@@H@ZPEAU1@H@std@@@2@@std@@QEAAPEAV?$tuple@P6AXPEAURayTraceTreadConfig@@H@ZPEAU1@H@2@XZ ; std::unique_ptr<std::tuple<void (__cdecl*)(RayTraceTreadConfig *,int),RayTraceTreadConfig *,int>,std::default_delete<std::tuple<void (__cdecl*)(RayTraceTreadConfig *,int),RayTraceTreadConfig *,int> > >::release
PUBLIC	??0?$unique_ptr@V?$tuple@P6AXPEAURayTraceTreadConfig@@H@ZPEAU1@H@std@@U?$default_delete@V?$tuple@P6AXPEAURayTraceTreadConfig@@H@ZPEAU1@H@std@@@2@@std@@QEAA@$$QEAV01@@Z ; std::unique_ptr<std::tuple<void (__cdecl*)(RayTraceTreadConfig *,int),RayTraceTreadConfig *,int>,std::default_delete<std::tuple<void (__cdecl*)(RayTraceTreadConfig *,int),RayTraceTreadConfig *,int> > >::unique_ptr<std::tuple<void (__cdecl*)(RayTraceTreadConfig *,int),RayTraceTreadConfig *,int>,std::default_delete<std::tuple<void (__cdecl*)(RayTraceTreadConfig *,int),RayTraceTreadConfig *,int> > >
PUBLIC	??D?$unique_ptr@V?$tuple@P6AXPEAURayTraceTreadConfig@@H@ZPEAU1@H@std@@U?$default_delete@V?$tuple@P6AXPEAURayTraceTreadConfig@@H@ZPEAU1@H@std@@@2@@std@@QEBAAEAV?$tuple@P6AXPEAURayTraceTreadConfig@@H@ZPEAU1@H@1@XZ ; std::unique_ptr<std::tuple<void (__cdecl*)(RayTraceTreadConfig *,int),RayTraceTreadConfig *,int>,std::default_delete<std::tuple<void (__cdecl*)(RayTraceTreadConfig *,int),RayTraceTreadConfig *,int> > >::operator*
PUBLIC	?_Run@?$_LaunchPad@V?$unique_ptr@V?$tuple@P6AXPEAURayTraceTreadConfig@@H@ZPEAU1@H@std@@U?$default_delete@V?$tuple@P6AXPEAURayTraceTreadConfig@@H@ZPEAU1@H@std@@@2@@std@@@std@@CAXPEAV12@@Z ; std::_LaunchPad<std::unique_ptr<std::tuple<void (__cdecl*)(RayTraceTreadConfig *,int),RayTraceTreadConfig *,int>,std::default_delete<std::tuple<void (__cdecl*)(RayTraceTreadConfig *,int),RayTraceTreadConfig *,int> > > >::_Run
PUBLIC	?_Go@?$_LaunchPad@V?$unique_ptr@V?$tuple@P6AXPEAURayTraceTreadConfig@@H@ZPEAU1@H@std@@U?$default_delete@V?$tuple@P6AXPEAURayTraceTreadConfig@@H@ZPEAU1@H@std@@@2@@std@@@std@@UEAAXXZ ; std::_LaunchPad<std::unique_ptr<std::tuple<void (__cdecl*)(RayTraceTreadConfig *,int),RayTraceTreadConfig *,int>,std::default_delete<std::tuple<void (__cdecl*)(RayTraceTreadConfig *,int),RayTraceTreadConfig *,int> > > >::_Go
PUBLIC	??1?$_LaunchPad@V?$unique_ptr@V?$tuple@P6AXPEAURayTraceTreadConfig@@H@ZPEAU1@H@std@@U?$default_delete@V?$tuple@P6AXPEAURayTraceTreadConfig@@H@ZPEAU1@H@std@@@2@@std@@@std@@QEAA@XZ ; std::_LaunchPad<std::unique_ptr<std::tuple<void (__cdecl*)(RayTraceTreadConfig *,int),RayTraceTreadConfig *,int>,std::default_delete<std::tuple<void (__cdecl*)(RayTraceTreadConfig *,int),RayTraceTreadConfig *,int> > > >::~_LaunchPad<std::unique_ptr<std::tuple<void (__cdecl*)(RayTraceTreadConfig *,int),RayTraceTreadConfig *,int>,std::default_delete<std::tuple<void (__cdecl*)(RayTraceTreadConfig *,int),RayTraceTreadConfig *,int> > > >
PUBLIC	??$_Get_size_of_n@$0BA@@std@@YA_K_K@Z		; std::_Get_size_of_n<16>
PUBLIC	??$_Idl_distance@PEAVthread@std@@PEAV12@@std@@YA_JAEBQEAVthread@0@0@Z ; std::_Idl_distance<std::thread *,std::thread *>
PUBLIC	??$_Uninitialized_move@PEAVthread@std@@PEAV12@V?$allocator@Vthread@std@@@2@@std@@YAPEAVthread@0@QEAV10@0PEAV10@AEAV?$allocator@Vthread@std@@@0@@Z ; std::_Uninitialized_move<std::thread *,std::thread *,std::allocator<std::thread> >
PUBLIC	??$_Destroy_range1@V?$allocator@Vthread@std@@@std@@@std@@YAXPEAVthread@0@0AEAV?$allocator@Vthread@std@@@0@U?$integral_constant@_N$0A@@0@@Z ; std::_Destroy_range1<std::allocator<std::thread> >
PUBLIC	??$_Allocate_manually_vector_aligned@U_Default_allocate_traits@std@@@std@@YAPEAX_K@Z ; std::_Allocate_manually_vector_aligned<std::_Default_allocate_traits>
PUBLIC	??$_Launch@V?$unique_ptr@V?$tuple@P6AXPEAURayTraceTreadConfig@@H@ZPEAU1@H@std@@U?$default_delete@V?$tuple@P6AXPEAURayTraceTreadConfig@@H@ZPEAU1@H@std@@@2@@std@@@std@@YAXPEAU_Thrd_imp_t@@$$QEAV?$unique_ptr@V?$tuple@P6AXPEAURayTraceTreadConfig@@H@ZPEAU1@H@std@@U?$default_delete@V?$tuple@P6AXPEAURayTraceTreadConfig@@H@ZPEAU1@H@std@@@2@@0@@Z ; std::_Launch<std::unique_ptr<std::tuple<void (__cdecl*)(RayTraceTreadConfig *,int),RayTraceTreadConfig *,int>,std::default_delete<std::tuple<void (__cdecl*)(RayTraceTreadConfig *,int),RayTraceTreadConfig *,int> > > >
PUBLIC	??$make_unique@V?$tuple@P6AXPEAURayTraceTreadConfig@@H@ZPEAU1@H@std@@A6AXPEAURayTraceTreadConfig@@H@ZPEAU3@AEAH$0A@@std@@YA?AV?$unique_ptr@V?$tuple@P6AXPEAURayTraceTreadConfig@@H@ZPEAU1@H@std@@U?$default_delete@V?$tuple@P6AXPEAURayTraceTreadConfig@@H@ZPEAU1@H@std@@@2@@0@A6AXPEAURayTraceTreadConfig@@H@Z$$QEAPEAU2@AEAH@Z ; std::make_unique<std::tuple<void (__cdecl*)(RayTraceTreadConfig *,int),RayTraceTreadConfig *,int>,void (__cdecl&)(RayTraceTreadConfig *,int),RayTraceTreadConfig *,int &,0>
PUBLIC	??$forward@AEAH@std@@YAAEAHAEAH@Z		; std::forward<int &>
PUBLIC	??$forward@A6AXPEAURayTraceTreadConfig@@H@Z@std@@YAA6AXPEAURayTraceTreadConfig@@H@ZA6AX0H@Z@Z ; std::forward<void (__cdecl&)(RayTraceTreadConfig *,int)>
PUBLIC	??$forward@PEAURayTraceTreadConfig@@@std@@YA$$QEAPEAURayTraceTreadConfig@@AEAPEAU1@@Z ; std::forward<RayTraceTreadConfig *>
PUBLIC	??$move@AEAH@std@@YA$$QEAHAEAH@Z		; std::move<int &>
PUBLIC	?_Get_second@?$_Compressed_pair@U?$default_delete@V?$tuple@P6AXPEAURayTraceTreadConfig@@H@ZPEAU1@H@std@@@std@@PEAV?$tuple@P6AXPEAURayTraceTreadConfig@@H@ZPEAU1@H@2@$00@std@@QEBAAEBQEAV?$tuple@P6AXPEAURayTraceTreadConfig@@H@ZPEAU1@H@2@XZ ; std::_Compressed_pair<std::default_delete<std::tuple<void (__cdecl*)(RayTraceTreadConfig *,int),RayTraceTreadConfig *,int> >,std::tuple<void (__cdecl*)(RayTraceTreadConfig *,int),RayTraceTreadConfig *,int> *,1>::_Get_second
PUBLIC	?_Get_first@?$_Compressed_pair@V?$allocator@Vthread@std@@@std@@V?$_Vector_val@U?$_Simple_types@Vthread@std@@@std@@@2@$00@std@@QEBAAEBV?$allocator@Vthread@std@@@2@XZ ; std::_Compressed_pair<std::allocator<std::thread>,std::_Vector_val<std::_Simple_types<std::thread> >,1>::_Get_first
PUBLIC	?_Myptr@?$_Unique_ptr_base@V?$tuple@P6AXPEAURayTraceTreadConfig@@H@ZPEAU1@H@std@@U?$default_delete@V?$tuple@P6AXPEAURayTraceTreadConfig@@H@ZPEAU1@H@std@@@2@@std@@QEBAAEBQEAV?$tuple@P6AXPEAURayTraceTreadConfig@@H@ZPEAU1@H@2@XZ ; std::_Unique_ptr_base<std::tuple<void (__cdecl*)(RayTraceTreadConfig *,int),RayTraceTreadConfig *,int>,std::default_delete<std::tuple<void (__cdecl*)(RayTraceTreadConfig *,int),RayTraceTreadConfig *,int> > >::_Myptr
PUBLIC	?_Get_first@?$_Compressed_pair@U?$default_delete@V?$tuple@P6AXPEAURayTraceTreadConfig@@H@ZPEAU1@H@std@@@std@@PEAV?$tuple@P6AXPEAURayTraceTreadConfig@@H@ZPEAU1@H@2@$00@std@@QEAAAEAU?$default_delete@V?$tuple@P6AXPEAURayTraceTreadConfig@@H@ZPEAU1@H@std@@@2@XZ ; std::_Compressed_pair<std::default_delete<std::tuple<void (__cdecl*)(RayTraceTreadConfig *,int),RayTraceTreadConfig *,int> >,std::tuple<void (__cdecl*)(RayTraceTreadConfig *,int),RayTraceTreadConfig *,int> *,1>::_Get_first
PUBLIC	?_Umove_if_noexcept1@?$vector@Vthread@std@@V?$allocator@Vthread@std@@@2@@std@@AEAAXPEAVthread@2@00U?$integral_constant@_N$00@2@@Z ; std::vector<std::thread,std::allocator<std::thread> >::_Umove_if_noexcept1
PUBLIC	?_Getal@?$_Vector_alloc@U?$_Vec_base_types@Vthread@std@@V?$allocator@Vthread@std@@@2@@std@@@std@@QEBAAEBV?$allocator@Vthread@std@@@2@XZ ; std::_Vector_alloc<std::_Vec_base_types<std::thread,std::allocator<std::thread> > >::_Getal
PUBLIC	?max_size@?$_Default_allocator_traits@V?$allocator@Vthread@std@@@std@@@std@@SA_KAEBV?$allocator@Vthread@std@@@2@@Z ; std::_Default_allocator_traits<std::allocator<std::thread> >::max_size
PUBLIC	??R?$default_delete@V?$tuple@P6AXPEAURayTraceTreadConfig@@H@ZPEAU1@H@std@@@std@@QEBAXPEAV?$tuple@P6AXPEAURayTraceTreadConfig@@H@ZPEAU1@H@1@@Z ; std::default_delete<std::tuple<void (__cdecl*)(RayTraceTreadConfig *,int),RayTraceTreadConfig *,int> >::operator()
PUBLIC	?get@?$unique_ptr@V?$tuple@P6AXPEAURayTraceTreadConfig@@H@ZPEAU1@H@std@@U?$default_delete@V?$tuple@P6AXPEAURayTraceTreadConfig@@H@ZPEAU1@H@std@@@2@@std@@QEBAPEAV?$tuple@P6AXPEAURayTraceTreadConfig@@H@ZPEAU1@H@2@XZ ; std::unique_ptr<std::tuple<void (__cdecl*)(RayTraceTreadConfig *,int),RayTraceTreadConfig *,int>,std::default_delete<std::tuple<void (__cdecl*)(RayTraceTreadConfig *,int),RayTraceTreadConfig *,int> > >::get
PUBLIC	?get_deleter@?$_Unique_ptr_base@V?$tuple@P6AXPEAURayTraceTreadConfig@@H@ZPEAU1@H@std@@U?$default_delete@V?$tuple@P6AXPEAURayTraceTreadConfig@@H@ZPEAU1@H@std@@@2@@std@@QEAAAEAU?$default_delete@V?$tuple@P6AXPEAURayTraceTreadConfig@@H@ZPEAU1@H@std@@@2@XZ ; std::_Unique_ptr_base<std::tuple<void (__cdecl*)(RayTraceTreadConfig *,int),RayTraceTreadConfig *,int>,std::default_delete<std::tuple<void (__cdecl*)(RayTraceTreadConfig *,int),RayTraceTreadConfig *,int> > >::get_deleter
PUBLIC	??0?$allocator@Vthread@std@@@std@@QEAA@XZ	; std::allocator<std::thread>::allocator<std::thread>
PUBLIC	?allocate@?$allocator@Vthread@std@@@std@@QEAAPEAVthread@2@_K@Z ; std::allocator<std::thread>::allocate
PUBLIC	?max_size@?$vector@Vthread@std@@V?$allocator@Vthread@std@@@2@@std@@QEBA_KXZ ; std::vector<std::thread,std::allocator<std::thread> >::max_size
PUBLIC	?_Umove@?$vector@Vthread@std@@V?$allocator@Vthread@std@@@2@@std@@AEAAPEAVthread@2@PEAV32@00@Z ; std::vector<std::thread,std::allocator<std::thread> >::_Umove
PUBLIC	?_Umove_if_noexcept@?$vector@Vthread@std@@V?$allocator@Vthread@std@@@2@@std@@AEAAXPEAVthread@2@00@Z ; std::vector<std::thread,std::allocator<std::thread> >::_Umove_if_noexcept
PUBLIC	?_Calculate_growth@?$vector@Vthread@std@@V?$allocator@Vthread@std@@@2@@std@@AEBA_K_K@Z ; std::vector<std::thread,std::allocator<std::thread> >::_Calculate_growth
PUBLIC	?_Change_array@?$vector@Vthread@std@@V?$allocator@Vthread@std@@@2@@std@@AEAAXQEAVthread@2@_K1@Z ; std::vector<std::thread,std::allocator<std::thread> >::_Change_array
PUBLIC	?_Xlength@?$vector@Vthread@std@@V?$allocator@Vthread@std@@@2@@std@@CAXXZ ; std::vector<std::thread,std::allocator<std::thread> >::_Xlength
PUBLIC	??0?$_Vector_val@U?$_Simple_types@Vthread@std@@@std@@@std@@QEAA@XZ ; std::_Vector_val<std::_Simple_types<std::thread> >::_Vector_val<std::_Simple_types<std::thread> >
PUBLIC	??1?$unique_ptr@V?$tuple@P6AXPEAURayTraceTreadConfig@@H@ZPEAU1@H@std@@U?$default_delete@V?$tuple@P6AXPEAURayTraceTreadConfig@@H@ZPEAU1@H@std@@@2@@std@@QEAA@XZ ; std::unique_ptr<std::tuple<void (__cdecl*)(RayTraceTreadConfig *,int),RayTraceTreadConfig *,int>,std::default_delete<std::tuple<void (__cdecl*)(RayTraceTreadConfig *,int),RayTraceTreadConfig *,int> > >::~unique_ptr<std::tuple<void (__cdecl*)(RayTraceTreadConfig *,int),RayTraceTreadConfig *,int>,std::default_delete<std::tuple<void (__cdecl*)(RayTraceTreadConfig *,int),RayTraceTreadConfig *,int> > >
PUBLIC	??$_Destroy_range@V?$allocator@Vthread@std@@@std@@@std@@YAXPEAVthread@0@0AEAV?$allocator@Vthread@std@@@0@@Z ; std::_Destroy_range<std::allocator<std::thread> >
PUBLIC	??$_Deallocate@$0BA@$0A@@std@@YAXPEAX_K@Z	; std::_Deallocate<16,0>
PUBLIC	??$_Allocate@$0BA@U_Default_allocate_traits@std@@$0A@@std@@YAPEAX_K@Z ; std::_Allocate<16,std::_Default_allocate_traits,0>
PUBLIC	??$?0$$V@?$_Compressed_pair@V?$allocator@Vthread@std@@@std@@V?$_Vector_val@U?$_Simple_types@Vthread@std@@@std@@@2@$00@std@@QEAA@U_Zero_then_variadic_args_t@1@@Z ; std::_Compressed_pair<std::allocator<std::thread>,std::_Vector_val<std::_Simple_types<std::thread> >,1>::_Compressed_pair<std::allocator<std::thread>,std::_Vector_val<std::_Simple_types<std::thread> >,1><>
PUBLIC	??$_Min_value@_K@std@@YAAEB_KAEB_K0@Z		; std::_Min_value<unsigned __int64>
PUBLIC	??$forward@H@std@@YA$$QEAHAEAH@Z		; std::forward<int>
PUBLIC	??$_Emplace_reallocate@Vthread@std@@@?$vector@Vthread@std@@V?$allocator@Vthread@std@@@2@@std@@QEAAPEAVthread@1@QEAV21@$$QEAV21@@Z ; std::vector<std::thread,std::allocator<std::thread> >::_Emplace_reallocate<std::thread>
PUBLIC	??$construct@Vthread@std@@V12@@?$_Default_allocator_traits@V?$allocator@Vthread@std@@@std@@@std@@SAXAEAV?$allocator@Vthread@std@@@1@QEAVthread@1@$$QEAV31@@Z ; std::_Default_allocator_traits<std::allocator<std::thread> >::construct<std::thread,std::thread>
PUBLIC	??$_Unfancy@Vthread@std@@@std@@YAPEAVthread@0@PEAV10@@Z ; std::_Unfancy<std::thread>
PUBLIC	??$forward@Vthread@std@@@std@@YA$$QEAVthread@0@AEAV10@@Z ; std::forward<std::thread>
PUBLIC	??$move@AEAVthread@std@@@std@@YA$$QEAVthread@0@AEAV10@@Z ; std::move<std::thread &>
PUBLIC	??$?0A6AXPEAURayTraceTreadConfig@@H@ZPEAU0@AEAHX@thread@std@@QEAA@A6AXPEAURayTraceTreadConfig@@H@Z$$QEAPEAU2@AEAH@Z ; std::thread::thread<void (__cdecl&)(RayTraceTreadConfig *,int),RayTraceTreadConfig *,int &,void>
PUBLIC	?_Get_second@?$_Compressed_pair@V?$allocator@Vthread@std@@@std@@V?$_Vector_val@U?$_Simple_types@Vthread@std@@@std@@@2@$00@std@@QEAAAEAV?$_Vector_val@U?$_Simple_types@Vthread@std@@@std@@@2@XZ ; std::_Compressed_pair<std::allocator<std::thread>,std::_Vector_val<std::_Simple_types<std::thread> >,1>::_Get_second
PUBLIC	?_Get_second@?$_Compressed_pair@V?$allocator@Vthread@std@@@std@@V?$_Vector_val@U?$_Simple_types@Vthread@std@@@std@@@2@$00@std@@QEBAAEBV?$_Vector_val@U?$_Simple_types@Vthread@std@@@std@@@2@XZ ; std::_Compressed_pair<std::allocator<std::thread>,std::_Vector_val<std::_Simple_types<std::thread> >,1>::_Get_second
PUBLIC	?deallocate@?$allocator@Vthread@std@@@std@@QEAAXQEAVthread@2@_K@Z ; std::allocator<std::thread>::deallocate
PUBLIC	?capacity@?$vector@Vthread@std@@V?$allocator@Vthread@std@@@2@@std@@QEBA_KXZ ; std::vector<std::thread,std::allocator<std::thread> >::capacity
PUBLIC	?_Destroy@?$vector@Vthread@std@@V?$allocator@Vthread@std@@@2@@std@@AEAAXPEAVthread@2@0@Z ; std::vector<std::thread,std::allocator<std::thread> >::_Destroy
PUBLIC	?_Orphan_all@?$_Vector_alloc@U?$_Vec_base_types@Vthread@std@@V?$allocator@Vthread@std@@@2@@std@@@std@@QEAAXXZ ; std::_Vector_alloc<std::_Vec_base_types<std::thread,std::allocator<std::thread> > >::_Orphan_all
PUBLIC	?_Get_data@?$_Vector_alloc@U?$_Vec_base_types@Vthread@std@@V?$allocator@Vthread@std@@@2@@std@@@std@@QEAAAEAV?$_Vector_val@U?$_Simple_types@Vthread@std@@@std@@@2@XZ ; std::_Vector_alloc<std::_Vec_base_types<std::thread,std::allocator<std::thread> > >::_Get_data
PUBLIC	?_Get_data@?$_Vector_alloc@U?$_Vec_base_types@Vthread@std@@V?$allocator@Vthread@std@@@2@@std@@@std@@QEBAAEBV?$_Vector_val@U?$_Simple_types@Vthread@std@@@std@@@2@XZ ; std::_Vector_alloc<std::_Vec_base_types<std::thread,std::allocator<std::thread> > >::_Get_data
PUBLIC	?_Myend@?$_Vector_alloc@U?$_Vec_base_types@Vthread@std@@V?$allocator@Vthread@std@@@2@@std@@@std@@QEAAAEAPEAVthread@2@XZ ; std::_Vector_alloc<std::_Vec_base_types<std::thread,std::allocator<std::thread> > >::_Myend
PUBLIC	?_Myend@?$_Vector_alloc@U?$_Vec_base_types@Vthread@std@@V?$allocator@Vthread@std@@@2@@std@@@std@@QEBAAEBQEAVthread@2@XZ ; std::_Vector_alloc<std::_Vec_base_types<std::thread,std::allocator<std::thread> > >::_Myend
PUBLIC	?_Get_first@?$_Compressed_pair@V?$allocator@Vthread@std@@@std@@V?$_Vector_val@U?$_Simple_types@Vthread@std@@@std@@@2@$00@std@@QEAAAEAV?$allocator@Vthread@std@@@2@XZ ; std::_Compressed_pair<std::allocator<std::thread>,std::_Vector_val<std::_Simple_types<std::thread> >,1>::_Get_first
PUBLIC	?_Has_unused_capacity@?$vector@Vthread@std@@V?$allocator@Vthread@std@@@2@@std@@AEBA_NXZ ; std::vector<std::thread,std::allocator<std::thread> >::_Has_unused_capacity
PUBLIC	?_Tidy@?$vector@Vthread@std@@V?$allocator@Vthread@std@@@2@@std@@AEAAXXZ ; std::vector<std::thread,std::allocator<std::thread> >::_Tidy
PUBLIC	?_Orphan_range@?$vector@Vthread@std@@V?$allocator@Vthread@std@@@2@@std@@AEBAXPEAVthread@2@0@Z ; std::vector<std::thread,std::allocator<std::thread> >::_Orphan_range
PUBLIC	??0?$_Vector_alloc@U?$_Vec_base_types@Vthread@std@@V?$allocator@Vthread@std@@@2@@std@@@std@@QEAA@XZ ; std::_Vector_alloc<std::_Vec_base_types<std::thread,std::allocator<std::thread> > >::_Vector_alloc<std::_Vec_base_types<std::thread,std::allocator<std::thread> > >
PUBLIC	?_Getal@?$_Vector_alloc@U?$_Vec_base_types@Vthread@std@@V?$allocator@Vthread@std@@@2@@std@@@std@@QEAAAEAV?$allocator@Vthread@std@@@2@XZ ; std::_Vector_alloc<std::_Vec_base_types<std::thread,std::allocator<std::thread> > >::_Getal
PUBLIC	?_Myfirst@?$_Vector_alloc@U?$_Vec_base_types@Vthread@std@@V?$allocator@Vthread@std@@@2@@std@@@std@@QEAAAEAPEAVthread@2@XZ ; std::_Vector_alloc<std::_Vec_base_types<std::thread,std::allocator<std::thread> > >::_Myfirst
PUBLIC	?_Myfirst@?$_Vector_alloc@U?$_Vec_base_types@Vthread@std@@V?$allocator@Vthread@std@@@2@@std@@@std@@QEBAAEBQEAVthread@2@XZ ; std::_Vector_alloc<std::_Vec_base_types<std::thread,std::allocator<std::thread> > >::_Myfirst
PUBLIC	?_Mylast@?$_Vector_alloc@U?$_Vec_base_types@Vthread@std@@V?$allocator@Vthread@std@@@2@@std@@@std@@QEAAAEAPEAVthread@2@XZ ; std::_Vector_alloc<std::_Vec_base_types<std::thread,std::allocator<std::thread> > >::_Mylast
PUBLIC	?_Mylast@?$_Vector_alloc@U?$_Vec_base_types@Vthread@std@@V?$allocator@Vthread@std@@@2@@std@@@std@@QEBAAEBQEAVthread@2@XZ ; std::_Vector_alloc<std::_Vec_base_types<std::thread,std::allocator<std::thread> > >::_Mylast
PUBLIC	??0?$vector@Vthread@std@@V?$allocator@Vthread@std@@@2@@std@@QEAA@XZ ; std::vector<std::thread,std::allocator<std::thread> >::vector<std::thread,std::allocator<std::thread> >
PUBLIC	??1?$vector@Vthread@std@@V?$allocator@Vthread@std@@@2@@std@@QEAA@XZ ; std::vector<std::thread,std::allocator<std::thread> >::~vector<std::thread,std::allocator<std::thread> >
PUBLIC	??$_Emplace_back_with_unused_capacity@Vthread@std@@@?$vector@Vthread@std@@V?$allocator@Vthread@std@@@2@@std@@AEAAX$$QEAVthread@1@@Z ; std::vector<std::thread,std::allocator<std::thread> >::_Emplace_back_with_unused_capacity<std::thread>
PUBLIC	??$emplace_back@Vthread@std@@@?$vector@Vthread@std@@V?$allocator@Vthread@std@@@2@@std@@QEAAX$$QEAVthread@1@@Z ; std::vector<std::thread,std::allocator<std::thread> >::emplace_back<std::thread>
PUBLIC	?push_back@?$vector@Vthread@std@@V?$allocator@Vthread@std@@@2@@std@@QEAAX$$QEAVthread@2@@Z ; std::vector<std::thread,std::allocator<std::thread> >::push_back
PUBLIC	?size@?$vector@Vthread@std@@V?$allocator@Vthread@std@@@2@@std@@QEBA_KXZ ; std::vector<std::thread,std::allocator<std::thread> >::size
PUBLIC	??A?$vector@Vthread@std@@V?$allocator@Vthread@std@@@2@@std@@QEAAAEAVthread@1@_K@Z ; std::vector<std::thread,std::allocator<std::thread> >::operator[]
PUBLIC	?ray_tracing_main@RaytraceEnviroment@@QEAAHPEAIHHH@Z ; RaytraceEnviroment::ray_tracing_main
PUBLIC	?single_thread@@YAXPEAURayTraceTreadConfig@@H@Z	; single_thread
PUBLIC	?single_pixel@@YAXPEAURayTraceTreadConfig@@@Z	; single_pixel
PUBLIC	?set_pixel@@YAXPEAIPEAUSetPixelPacket@@@Z	; set_pixel
PUBLIC	?color@@YA?AVVec3@@AEBVRay@@PEAVHitable@@H@Z	; color
PUBLIC	??0RaytraceEnviroment@@QEAA@HH@Z		; RaytraceEnviroment::RaytraceEnviroment
PUBLIC	??8std@@YA_NVid@thread@0@0@Z			; std::operator==
PUBLIC	?get_id@this_thread@std@@YA?AVid@thread@2@XZ	; std::this_thread::get_id
PUBLIC	?get_id@thread@std@@QEBA?AVid@12@XZ		; std::thread::get_id
PUBLIC	?join@thread@std@@QEAAXXZ			; std::thread::join
PUBLIC	??0id@thread@std@@AEAA@I@Z			; std::thread::id::id
PUBLIC	?hardware_concurrency@thread@std@@SAIXZ		; std::thread::hardware_concurrency
PUBLIC	?joinable@thread@std@@QEBA_NXZ			; std::thread::joinable
PUBLIC	??0thread@std@@QEAA@$$QEAV01@@Z			; std::thread::thread
PUBLIC	??1thread@std@@QEAA@XZ				; std::thread::~thread
PUBLIC	?_Call_func@_Pad@std@@CAIPEAX@Z			; std::_Pad::_Call_func
PUBLIC	?_Release@_Pad@std@@QEAAXXZ			; std::_Pad::_Release
PUBLIC	?_Launch@_Pad@std@@QEAAXPEAU_Thrd_imp_t@@@Z	; std::_Pad::_Launch
PUBLIC	??1_Pad@std@@QEAA@XZ				; std::_Pad::~_Pad
PUBLIC	??0_Pad@std@@QEAA@XZ				; std::_Pad::_Pad
PUBLIC	?_Release@_Auto_mtx@std@@QEAAXXZ		; std::_Auto_mtx::_Release
PUBLIC	??1_Auto_mtx@std@@QEAA@XZ			; std::_Auto_mtx::~_Auto_mtx
PUBLIC	??0_Auto_mtx@std@@QEAA@PEAU_Mtx_internal_imp_t@@@Z ; std::_Auto_mtx::_Auto_mtx
PUBLIC	?_Release@_Auto_cnd@std@@QEAAXXZ		; std::_Auto_cnd::_Release
PUBLIC	??1_Auto_cnd@std@@QEAA@XZ			; std::_Auto_cnd::~_Auto_cnd
PUBLIC	??0_Auto_cnd@std@@QEAA@PEAU_Cnd_internal_imp_t@@@Z ; std::_Auto_cnd::_Auto_cnd
PUBLIC	?_Cnd_signalX@std@@YAHPEAU_Cnd_internal_imp_t@@@Z ; std::_Cnd_signalX
PUBLIC	?_Cnd_waitX@std@@YAHPEAU_Cnd_internal_imp_t@@PEAU_Mtx_internal_imp_t@@@Z ; std::_Cnd_waitX
PUBLIC	?_Cnd_initX@std@@YAHPEAPEAU_Cnd_internal_imp_t@@@Z ; std::_Cnd_initX
PUBLIC	?_Mtx_unlockX@std@@YAHPEAU_Mtx_internal_imp_t@@@Z ; std::_Mtx_unlockX
PUBLIC	?_Mtx_lockX@std@@YAHPEAU_Mtx_internal_imp_t@@@Z	; std::_Mtx_lockX
PUBLIC	?_Mtx_initX@std@@YAHPEAPEAU_Mtx_internal_imp_t@@H@Z ; std::_Mtx_initX
PUBLIC	?_Thrd_startX@std@@YAHPEAU_Thrd_imp_t@@P6AIPEAX@Z1@Z ; std::_Thrd_startX
PUBLIC	?_Check_C_return@std@@YAHH@Z			; std::_Check_C_return
PUBLIC	?get_ray@Camera@@QEAA?AVRay@@MM@Z		; Camera::get_ray
PUBLIC	??0Camera@@QEAA@MM@Z				; Camera::Camera
PUBLIC	??0hit_record@@QEAA@XZ				; hit_record::hit_record
PUBLIC	?hit@HitableList@@UEBA_NAEBVRay@@MMAEAUhit_record@@@Z ; HitableList::hit
PUBLIC	??0HitableList@@QEAA@PEAPEAVHitable@@H@Z	; HitableList::HitableList
PUBLIC	?hit@Sphere@@UEBA_NAEBVRay@@MMAEAUhit_record@@@Z ; Sphere::hit
PUBLIC	??0Hitable@@QEAA@XZ				; Hitable::Hitable
PUBLIC	??0Sphere@@QEAA@VVec3@@MPEAVMaterial@@@Z	; Sphere::Sphere
PUBLIC	?scatter@Dielectric@@UEBA_NAEBVRay@@AEBUhit_record@@AEAVVec3@@AEAV2@@Z ; Dielectric::scatter
PUBLIC	??0Dielectric@@QEAA@M@Z				; Dielectric::Dielectric
PUBLIC	?schlick@@YAMMM@Z				; schlick
PUBLIC	?scatter@Metal@@UEBA_NAEBVRay@@AEBUhit_record@@AEAVVec3@@AEAV2@@Z ; Metal::scatter
PUBLIC	??0Metal@@QEAA@AEBVVec3@@M@Z			; Metal::Metal
PUBLIC	??0Material@@QEAA@XZ				; Material::Material
PUBLIC	?scatter@Lambertian@@UEBA_NAEBVRay@@AEBUhit_record@@AEAVVec3@@AEAV2@@Z ; Lambertian::scatter
PUBLIC	??0Lambertian@@QEAA@AEBVVec3@@@Z		; Lambertian::Lambertian
PUBLIC	?point_at_parameter@Ray@@QEBA?AVVec3@@M@Z	; Ray::point_at_parameter
PUBLIC	?direction@Ray@@QEBA?AVVec3@@XZ			; Ray::direction
PUBLIC	?origin@Ray@@QEBA?AVVec3@@XZ			; Ray::origin
PUBLIC	??0Ray@@QEAA@AEBVVec3@@0@Z			; Ray::Ray
PUBLIC	??0Ray@@QEAA@XZ					; Ray::Ray
PUBLIC	?refract@@YA_NAEBVVec3@@0MAEAV1@@Z		; refract
PUBLIC	?reflect@@YA?AVVec3@@AEBV1@0@Z			; reflect
PUBLIC	?random_in_unit_sphere@@YA?AVVec3@@XZ		; random_in_unit_sphere
PUBLIC	?unit_vector@@YA?AVVec3@@V1@@Z			; unit_vector
PUBLIC	??_0Vec3@@QEAAAEAV0@M@Z				; Vec3::operator/=
PUBLIC	??YVec3@@QEAAAEAV0@AEBV0@@Z			; Vec3::operator+=
PUBLIC	?dot@@YAMAEBVVec3@@0@Z				; dot
PUBLIC	??K@YA?AVVec3@@V0@M@Z				; operator/
PUBLIC	??D@YA?AVVec3@@MAEBV0@@Z			; operator*
PUBLIC	??D@YA?AVVec3@@AEBV0@0@Z			; operator*
PUBLIC	??G@YA?AVVec3@@AEBV0@0@Z			; operator-
PUBLIC	??H@YA?AVVec3@@AEBV0@0@Z			; operator+
PUBLIC	?squared_length@Vec3@@QEBAMXZ			; Vec3::squared_length
PUBLIC	?length@Vec3@@QEBAMXZ				; Vec3::length
PUBLIC	??AVec3@@QEAAAEAMH@Z				; Vec3::operator[]
PUBLIC	??GVec3@@QEBA?AV0@XZ				; Vec3::operator-
PUBLIC	?y@Vec3@@QEBAMXZ				; Vec3::y
PUBLIC	??0Vec3@@QEAA@MMM@Z				; Vec3::Vec3
PUBLIC	??0Vec3@@QEAA@XZ				; Vec3::Vec3
PUBLIC	?_Adjust_manually_vector_aligned@std@@YAXAEAPEAXAEA_K@Z ; std::_Adjust_manually_vector_aligned
PUBLIC	?_Allocate@_Default_allocate_traits@std@@SAPEAX_K@Z ; std::_Default_allocate_traits::_Allocate
PUBLIC	?_Orphan_all@_Container_base0@std@@QEAAXXZ	; std::_Container_base0::_Orphan_all
PUBLIC	?max@?$numeric_limits@_J@std@@SA_JXZ		; std::numeric_limits<__int64>::max
PUBLIC	?sqrt@@YAMM@Z					; sqrt
PUBLIC	?pow@@YAMMH@Z					; pow
PUBLIC	??2@YAPEAX_KPEAX@Z				; operator new
PUBLIC	__real@3a83126f
PUBLIC	__real@3e4ccccd
PUBLIC	__real@3e99999a
PUBLIC	__real@3f000000
PUBLIC	__real@3f19999a
PUBLIC	__real@3f333333
PUBLIC	__real@3f4ccccd
PUBLIC	__real@3f800000
PUBLIC	__real@3fe0000000000000
PUBLIC	__real@3ff0000000000000
PUBLIC	__real@40000000
PUBLIC	__real@406fffae147ae148
PUBLIC	__real@40800000
PUBLIC	__real@40a00000
PUBLIC	__real@46fffe00
PUBLIC	__real@4b189680
PUBLIC	__real@7f7fffff
PUBLIC	__real@bf800000
PUBLIC	__real@c0000000
PUBLIC	__real@c2c90000
PUBLIC	__xmm@00000000000000000000000000000006
PUBLIC	__xmm@80000000800000008000000080000000
EXTRN	__CxxFrameHandler3:PROC
EXTRN	__GSHandlerCheck:PROC
EXTRN	__std_terminate:PROC
EXTRN	memset:PROC
EXTRN	powf:PROC
EXTRN	sqrtf:PROC
EXTRN	__security_cookie:QWORD
EXTRN	_fltused:DWORD
;	COMDAT pdata
pdata	SEGMENT
$pdata$??1?$_Uninitialized_backout_al@PEAVthread@std@@V?$allocator@Vthread@std@@@2@@std@@QEAA@XZ DD imagerel $LN35@Uninitiali
	DD	imagerel $LN35@Uninitiali+43
	DD	imagerel $unwind$??1?$_Uninitialized_backout_al@PEAVthread@std@@V?$allocator@Vthread@std@@@2@@std@@QEAA@XZ
pdata	ENDS
;	COMDAT pdata
pdata	SEGMENT
$pdata$??_Gthread@std@@QEAAPEAXI@Z DD imagerel $LN13@scalar
	DD	imagerel $LN13@scalar+25
	DD	imagerel $unwind$??_Gthread@std@@QEAAPEAXI@Z
pdata	ENDS
;	COMDAT pdata
pdata	SEGMENT
$pdata$??$destroy@Vthread@std@@@?$_Default_allocator_traits@V?$allocator@Vthread@std@@@std@@@std@@SAXAEAV?$allocator@Vthread@std@@@1@QEAVthread@1@@Z DD imagerel $LN16@destroy
	DD	imagerel $LN16@destroy+22
	DD	imagerel $unwind$??$destroy@Vthread@std@@@?$_Default_allocator_traits@V?$allocator@Vthread@std@@@std@@@std@@SAXAEAV?$allocator@Vthread@std@@@1@QEAVthread@1@@Z
pdata	ENDS
;	COMDAT pdata
pdata	SEGMENT
$pdata$??$?0V?$unique_ptr@V?$tuple@P6AXPEAURayTraceTreadConfig@@H@ZPEAU1@H@std@@U?$default_delete@V?$tuple@P6AXPEAURayTraceTreadConfig@@H@ZPEAU1@H@std@@@2@@std@@@?$_LaunchPad@V?$unique_ptr@V?$tuple@P6AXPEAURayTraceTreadConfig@@H@ZPEAU1@H@std@@U?$default_delete@V?$tuple@P6AXPEAURayTraceTreadConfig@@H@ZPEAU1@H@std@@@2@@std@@@std@@QEAA@$$QEAV?$unique_ptr@V?$tuple@P6AXPEAURayTraceTreadConfig@@H@ZPEAU1@H@std@@U?$default_delete@V?$tuple@P6AXPEAURayTraceTreadConfig@@H@ZPEAU1@H@std@@@2@@1@@Z DD imagerel $LN72@tuple
	DD	imagerel $LN72@tuple+174
	DD	imagerel $unwind$??$?0V?$unique_ptr@V?$tuple@P6AXPEAURayTraceTreadConfig@@H@ZPEAU1@H@std@@U?$default_delete@V?$tuple@P6AXPEAURayTraceTreadConfig@@H@ZPEAU1@H@std@@@2@@std@@@?$_LaunchPad@V?$unique_ptr@V?$tuple@P6AXPEAURayTraceTreadConfig@@H@ZPEAU1@H@std@@U?$default_delete@V?$tuple@P6AXPEAURayTraceTreadConfig@@H@ZPEAU1@H@std@@@2@@std@@@std@@QEAA@$$QEAV?$unique_ptr@V?$tuple@P6AXPEAURayTraceTreadConfig@@H@ZPEAU1@H@std@@U?$default_delete@V?$tuple@P6AXPEAURayTraceTreadConfig@@H@ZPEAU1@H@std@@@2@@1@@Z
pdata	ENDS
;	COMDAT pdata
pdata	SEGMENT
$pdata$?_Run@?$_LaunchPad@V?$unique_ptr@V?$tuple@P6AXPEAURayTraceTreadConfig@@H@ZPEAU1@H@std@@U?$default_delete@V?$tuple@P6AXPEAURayTraceTreadConfig@@H@ZPEAU1@H@std@@@2@@std@@@std@@CAXPEAV12@@Z DD imagerel $LN113@Run
	DD	imagerel $LN113@Run+151
	DD	imagerel $unwind$?_Run@?$_LaunchPad@V?$unique_ptr@V?$tuple@P6AXPEAURayTraceTreadConfig@@H@ZPEAU1@H@std@@U?$default_delete@V?$tuple@P6AXPEAURayTraceTreadConfig@@H@ZPEAU1@H@std@@@2@@std@@@std@@CAXPEAV12@@Z
pdata	ENDS
;	COMDAT pdata
pdata	SEGMENT
$pdata$?_Go@?$_LaunchPad@V?$unique_ptr@V?$tuple@P6AXPEAURayTraceTreadConfig@@H@ZPEAU1@H@std@@U?$default_delete@V?$tuple@P6AXPEAURayTraceTreadConfig@@H@ZPEAU1@H@std@@@2@@std@@@std@@UEAAXXZ DD imagerel $LN116@Go
	DD	imagerel $LN116@Go+145
	DD	imagerel $unwind$?_Go@?$_LaunchPad@V?$unique_ptr@V?$tuple@P6AXPEAURayTraceTreadConfig@@H@ZPEAU1@H@std@@U?$default_delete@V?$tuple@P6AXPEAURayTraceTreadConfig@@H@ZPEAU1@H@std@@@2@@std@@@std@@UEAAXXZ
pdata	ENDS
;	COMDAT pdata
pdata	SEGMENT
$pdata$??1?$_LaunchPad@V?$unique_ptr@V?$tuple@P6AXPEAURayTraceTreadConfig@@H@ZPEAU1@H@std@@U?$default_delete@V?$tuple@P6AXPEAURayTraceTreadConfig@@H@ZPEAU1@H@std@@@2@@std@@@std@@QEAA@XZ DD imagerel $LN44@LaunchPad
	DD	imagerel $LN44@LaunchPad+105
	DD	imagerel $unwind$??1?$_LaunchPad@V?$unique_ptr@V?$tuple@P6AXPEAURayTraceTreadConfig@@H@ZPEAU1@H@std@@U?$default_delete@V?$tuple@P6AXPEAURayTraceTreadConfig@@H@ZPEAU1@H@std@@@2@@std@@@std@@QEAA@XZ
pdata	ENDS
;	COMDAT pdata
pdata	SEGMENT
$pdata$??$_Destroy_range1@V?$allocator@Vthread@std@@@std@@@std@@YAXPEAVthread@0@0AEAV?$allocator@Vthread@std@@@0@U?$integral_constant@_N$0A@@0@@Z DD imagerel $LN29@Destroy_ra
	DD	imagerel $LN29@Destroy_ra+43
	DD	imagerel $unwind$??$_Destroy_range1@V?$allocator@Vthread@std@@@std@@@std@@YAXPEAVthread@0@0AEAV?$allocator@Vthread@std@@@0@U?$integral_constant@_N$0A@@0@@Z
pdata	ENDS
;	COMDAT pdata
pdata	SEGMENT
$pdata$??$_Allocate_manually_vector_aligned@U_Default_allocate_traits@std@@@std@@YAPEAX_K@Z DD imagerel $LN16@Allocate_m
	DD	imagerel $LN16@Allocate_m+62
	DD	imagerel $unwind$??$_Allocate_manually_vector_aligned@U_Default_allocate_traits@std@@@std@@YAPEAX_K@Z
pdata	ENDS
;	COMDAT pdata
pdata	SEGMENT
$pdata$??$_Launch@V?$unique_ptr@V?$tuple@P6AXPEAURayTraceTreadConfig@@H@ZPEAU1@H@std@@U?$default_delete@V?$tuple@P6AXPEAURayTraceTreadConfig@@H@ZPEAU1@H@std@@@2@@std@@@std@@YAXPEAU_Thrd_imp_t@@$$QEAV?$unique_ptr@V?$tuple@P6AXPEAURayTraceTreadConfig@@H@ZPEAU1@H@std@@U?$default_delete@V?$tuple@P6AXPEAURayTraceTreadConfig@@H@ZPEAU1@H@std@@@2@@0@@Z DD imagerel $LN136@Launch
	DD	imagerel $LN136@Launch+332
	DD	imagerel $unwind$??$_Launch@V?$unique_ptr@V?$tuple@P6AXPEAURayTraceTreadConfig@@H@ZPEAU1@H@std@@U?$default_delete@V?$tuple@P6AXPEAURayTraceTreadConfig@@H@ZPEAU1@H@std@@@2@@std@@@std@@YAXPEAU_Thrd_imp_t@@$$QEAV?$unique_ptr@V?$tuple@P6AXPEAURayTraceTreadConfig@@H@ZPEAU1@H@std@@U?$default_delete@V?$tuple@P6AXPEAURayTraceTreadConfig@@H@ZPEAU1@H@std@@@2@@0@@Z
pdata	ENDS
;	COMDAT pdata
pdata	SEGMENT
$pdata$??$make_unique@V?$tuple@P6AXPEAURayTraceTreadConfig@@H@ZPEAU1@H@std@@A6AXPEAURayTraceTreadConfig@@H@ZPEAU3@AEAH$0A@@std@@YA?AV?$unique_ptr@V?$tuple@P6AXPEAURayTraceTreadConfig@@H@ZPEAU1@H@std@@U?$default_delete@V?$tuple@P6AXPEAURayTraceTreadConfig@@H@ZPEAU1@H@std@@@2@@0@A6AXPEAURayTraceTreadConfig@@H@Z$$QEAPEAU2@AEAH@Z DD imagerel $LN63@make_uniqu
	DD	imagerel $LN63@make_uniqu+88
	DD	imagerel $unwind$??$make_unique@V?$tuple@P6AXPEAURayTraceTreadConfig@@H@ZPEAU1@H@std@@A6AXPEAURayTraceTreadConfig@@H@ZPEAU3@AEAH$0A@@std@@YA?AV?$unique_ptr@V?$tuple@P6AXPEAURayTraceTreadConfig@@H@ZPEAU1@H@std@@U?$default_delete@V?$tuple@P6AXPEAURayTraceTreadConfig@@H@ZPEAU1@H@std@@@2@@0@A6AXPEAURayTraceTreadConfig@@H@Z$$QEAPEAU2@AEAH@Z
pdata	ENDS
;	COMDAT pdata
pdata	SEGMENT
$pdata$?allocate@?$allocator@Vthread@std@@@std@@QEAAPEAVthread@2@_K@Z DD imagerel $LN30@allocate
	DD	imagerel $LN30@allocate+116
	DD	imagerel $unwind$?allocate@?$allocator@Vthread@std@@@std@@QEAAPEAVthread@2@_K@Z
pdata	ENDS
;	COMDAT pdata
pdata	SEGMENT
$pdata$?_Change_array@?$vector@Vthread@std@@V?$allocator@Vthread@std@@@2@@std@@AEAAXQEAVthread@2@_K1@Z DD imagerel $LN128@Change_arr
	DD	imagerel $LN128@Change_arr+176
	DD	imagerel $unwind$?_Change_array@?$vector@Vthread@std@@V?$allocator@Vthread@std@@@2@@std@@AEAAXQEAVthread@2@_K1@Z
pdata	ENDS
;	COMDAT pdata
pdata	SEGMENT
$pdata$?_Xlength@?$vector@Vthread@std@@V?$allocator@Vthread@std@@@2@@std@@CAXXZ DD imagerel $LN4@Xlength
	DD	imagerel $LN4@Xlength+18
	DD	imagerel $unwind$?_Xlength@?$vector@Vthread@std@@V?$allocator@Vthread@std@@@2@@std@@CAXXZ
pdata	ENDS
;	COMDAT pdata
pdata	SEGMENT
$pdata$??$_Destroy_range@V?$allocator@Vthread@std@@@std@@@std@@YAXPEAVthread@0@0AEAV?$allocator@Vthread@std@@@0@@Z DD imagerel $LN32@Destroy_ra
	DD	imagerel $LN32@Destroy_ra+43
	DD	imagerel $unwind$??$_Destroy_range@V?$allocator@Vthread@std@@@std@@@std@@YAXPEAVthread@0@0AEAV?$allocator@Vthread@std@@@0@@Z
pdata	ENDS
;	COMDAT pdata
pdata	SEGMENT
$pdata$??$_Deallocate@$0BA@$0A@@std@@YAXPEAX_K@Z DD imagerel $LN17@Deallocate
	DD	imagerel $LN17@Deallocate+53
	DD	imagerel $unwind$??$_Deallocate@$0BA@$0A@@std@@YAXPEAX_K@Z
pdata	ENDS
;	COMDAT pdata
pdata	SEGMENT
$pdata$??$_Allocate@$0BA@U_Default_allocate_traits@std@@$0A@@std@@YAPEAX_K@Z DD imagerel $LN23@Allocate
	DD	imagerel $LN23@Allocate+90
	DD	imagerel $unwind$??$_Allocate@$0BA@U_Default_allocate_traits@std@@$0A@@std@@YAPEAX_K@Z
pdata	ENDS
;	COMDAT pdata
pdata	SEGMENT
$pdata$??$_Emplace_reallocate@Vthread@std@@@?$vector@Vthread@std@@V?$allocator@Vthread@std@@@2@@std@@QEAAPEAVthread@1@QEAV21@$$QEAV21@@Z DD imagerel $LN549@Emplace_re
	DD	imagerel $LN549@Emplace_re+66
	DD	imagerel $unwind$??$_Emplace_reallocate@Vthread@std@@@?$vector@Vthread@std@@V?$allocator@Vthread@std@@@2@@std@@QEAAPEAVthread@1@QEAV21@$$QEAV21@@Z
pdata	ENDS
;	COMDAT pdata
pdata	SEGMENT
$pdata$3$??$_Emplace_reallocate@Vthread@std@@@?$vector@Vthread@std@@V?$allocator@Vthread@std@@@2@@std@@QEAAPEAVthread@1@QEAV21@$$QEAV21@@Z DD imagerel $LN549@Emplace_re+66
	DD	imagerel $LN549@Emplace_re+523
	DD	imagerel $chain$3$??$_Emplace_reallocate@Vthread@std@@@?$vector@Vthread@std@@V?$allocator@Vthread@std@@@2@@std@@QEAAPEAVthread@1@QEAV21@$$QEAV21@@Z
pdata	ENDS
;	COMDAT pdata
pdata	SEGMENT
$pdata$5$??$_Emplace_reallocate@Vthread@std@@@?$vector@Vthread@std@@V?$allocator@Vthread@std@@@2@@std@@QEAAPEAVthread@1@QEAV21@$$QEAV21@@Z DD imagerel $LN549@Emplace_re+523
	DD	imagerel $LN549@Emplace_re+537
	DD	imagerel $chain$5$??$_Emplace_reallocate@Vthread@std@@@?$vector@Vthread@std@@V?$allocator@Vthread@std@@@2@@std@@QEAAPEAVthread@1@QEAV21@$$QEAV21@@Z
pdata	ENDS
;	COMDAT pdata
pdata	SEGMENT
$pdata$6$??$_Emplace_reallocate@Vthread@std@@@?$vector@Vthread@std@@V?$allocator@Vthread@std@@@2@@std@@QEAAPEAVthread@1@QEAV21@$$QEAV21@@Z DD imagerel $LN549@Emplace_re+537
	DD	imagerel $LN549@Emplace_re+543
	DD	imagerel $chain$6$??$_Emplace_reallocate@Vthread@std@@@?$vector@Vthread@std@@V?$allocator@Vthread@std@@@2@@std@@QEAAPEAVthread@1@QEAV21@$$QEAV21@@Z
pdata	ENDS
;	COMDAT pdata
pdata	SEGMENT
$pdata$??$?0A6AXPEAURayTraceTreadConfig@@H@ZPEAU0@AEAHX@thread@std@@QEAA@A6AXPEAURayTraceTreadConfig@@H@Z$$QEAPEAU2@AEAH@Z DD imagerel $LN228@thread
	DD	imagerel $LN228@thread+403
	DD	imagerel $unwind$??$?0A6AXPEAURayTraceTreadConfig@@H@ZPEAU0@AEAHX@thread@std@@QEAA@A6AXPEAURayTraceTreadConfig@@H@Z$$QEAPEAU2@AEAH@Z
pdata	ENDS
;	COMDAT pdata
pdata	SEGMENT
$pdata$?deallocate@?$allocator@Vthread@std@@@std@@QEAAXQEAVthread@2@_K@Z DD imagerel $LN20@deallocate
	DD	imagerel $LN20@deallocate+66
	DD	imagerel $unwind$?deallocate@?$allocator@Vthread@std@@@std@@QEAAXQEAVthread@2@_K@Z
pdata	ENDS
;	COMDAT pdata
pdata	SEGMENT
$pdata$?_Destroy@?$vector@Vthread@std@@V?$allocator@Vthread@std@@@2@@std@@AEAAXPEAVthread@2@0@Z DD imagerel $LN39@Destroy
	DD	imagerel $LN39@Destroy+43
	DD	imagerel $unwind$?_Destroy@?$vector@Vthread@std@@V?$allocator@Vthread@std@@@2@@std@@AEAAXPEAVthread@2@0@Z
pdata	ENDS
;	COMDAT pdata
pdata	SEGMENT
$pdata$?_Tidy@?$vector@Vthread@std@@V?$allocator@Vthread@std@@@2@@std@@AEAAXXZ DD imagerel $LN128@Tidy
	DD	imagerel $LN128@Tidy+129
	DD	imagerel $unwind$?_Tidy@?$vector@Vthread@std@@V?$allocator@Vthread@std@@@2@@std@@AEAAXXZ
pdata	ENDS
;	COMDAT pdata
pdata	SEGMENT
$pdata$??1?$vector@Vthread@std@@V?$allocator@Vthread@std@@@2@@std@@QEAA@XZ DD imagerel $LN131@vector
	DD	imagerel $LN131@vector+129
	DD	imagerel $unwind$??1?$vector@Vthread@std@@V?$allocator@Vthread@std@@@2@@std@@QEAA@XZ
pdata	ENDS
;	COMDAT pdata
pdata	SEGMENT
$pdata$?ray_tracing_main@RaytraceEnviroment@@QEAAHPEAIHHH@Z DD imagerel $LN531
	DD	imagerel $LN531+954
	DD	imagerel $unwind$?ray_tracing_main@RaytraceEnviroment@@QEAAHPEAIHHH@Z
pdata	ENDS
;	COMDAT pdata
pdata	SEGMENT
$pdata$?single_thread@@YAXPEAURayTraceTreadConfig@@H@Z DD imagerel $LN12@single_thr
	DD	imagerel $LN12@single_thr+9
	DD	imagerel $unwind$?single_thread@@YAXPEAURayTraceTreadConfig@@H@Z
pdata	ENDS
;	COMDAT pdata
pdata	SEGMENT
$pdata$0$?single_thread@@YAXPEAURayTraceTreadConfig@@H@Z DD imagerel $LN12@single_thr+9
	DD	imagerel $LN12@single_thr+47
	DD	imagerel $chain$0$?single_thread@@YAXPEAURayTraceTreadConfig@@H@Z
pdata	ENDS
;	COMDAT pdata
pdata	SEGMENT
$pdata$1$?single_thread@@YAXPEAURayTraceTreadConfig@@H@Z DD imagerel $LN12@single_thr+47
	DD	imagerel $LN12@single_thr+48
	DD	imagerel $chain$1$?single_thread@@YAXPEAURayTraceTreadConfig@@H@Z
pdata	ENDS
;	COMDAT pdata
pdata	SEGMENT
$pdata$?single_pixel@@YAXPEAURayTraceTreadConfig@@@Z DD imagerel $LN65@single_pix
	DD	imagerel $LN65@single_pix+47
	DD	imagerel $unwind$?single_pixel@@YAXPEAURayTraceTreadConfig@@@Z
pdata	ENDS
;	COMDAT pdata
pdata	SEGMENT
$pdata$0$?single_pixel@@YAXPEAURayTraceTreadConfig@@@Z DD imagerel $LN65@single_pix+47
	DD	imagerel $LN65@single_pix+72
	DD	imagerel $chain$0$?single_pixel@@YAXPEAURayTraceTreadConfig@@@Z
pdata	ENDS
;	COMDAT pdata
pdata	SEGMENT
$pdata$2$?single_pixel@@YAXPEAURayTraceTreadConfig@@@Z DD imagerel $LN65@single_pix+72
	DD	imagerel $LN65@single_pix+374
	DD	imagerel $chain$2$?single_pixel@@YAXPEAURayTraceTreadConfig@@@Z
pdata	ENDS
;	COMDAT pdata
pdata	SEGMENT
$pdata$3$?single_pixel@@YAXPEAURayTraceTreadConfig@@@Z DD imagerel $LN65@single_pix+374
	DD	imagerel $LN65@single_pix+437
	DD	imagerel $chain$3$?single_pixel@@YAXPEAURayTraceTreadConfig@@@Z
pdata	ENDS
;	COMDAT pdata
pdata	SEGMENT
$pdata$4$?single_pixel@@YAXPEAURayTraceTreadConfig@@@Z DD imagerel $LN65@single_pix+437
	DD	imagerel $LN65@single_pix+567
	DD	imagerel $chain$4$?single_pixel@@YAXPEAURayTraceTreadConfig@@@Z
pdata	ENDS
;	COMDAT pdata
pdata	SEGMENT
$pdata$?color@@YA?AVVec3@@AEBVRay@@PEAVHitable@@H@Z DD imagerel $LN63@color
	DD	imagerel $LN63@color+248
	DD	imagerel $unwind$?color@@YA?AVVec3@@AEBVRay@@PEAVHitable@@H@Z
pdata	ENDS
;	COMDAT pdata
pdata	SEGMENT
$pdata$0$?color@@YA?AVVec3@@AEBVRay@@PEAVHitable@@H@Z DD imagerel $LN63@color+248
	DD	imagerel $LN63@color+387
	DD	imagerel $chain$0$?color@@YA?AVVec3@@AEBVRay@@PEAVHitable@@H@Z
pdata	ENDS
;	COMDAT pdata
pdata	SEGMENT
$pdata$1$?color@@YA?AVVec3@@AEBVRay@@PEAVHitable@@H@Z DD imagerel $LN63@color+387
	DD	imagerel $LN63@color+426
	DD	imagerel $chain$1$?color@@YA?AVVec3@@AEBVRay@@PEAVHitable@@H@Z
pdata	ENDS
;	COMDAT pdata
pdata	SEGMENT
$pdata$??0RaytraceEnviroment@@QEAA@HH@Z DD imagerel $LN121@RaytraceEn
	DD	imagerel $LN121@RaytraceEn+886
	DD	imagerel $unwind$??0RaytraceEnviroment@@QEAA@HH@Z
pdata	ENDS
;	COMDAT pdata
pdata	SEGMENT
$pdata$?dtor$0@?0???0RaytraceEnviroment@@QEAA@HH@Z@4HA DD imagerel ?dtor$0@?0???0RaytraceEnviroment@@QEAA@HH@Z@4HA
	DD	imagerel ?dtor$0@?0???0RaytraceEnviroment@@QEAA@HH@Z@4HA+32
	DD	imagerel $unwind$?dtor$0@?0???0RaytraceEnviroment@@QEAA@HH@Z@4HA
pdata	ENDS
;	COMDAT pdata
pdata	SEGMENT
$pdata$?dtor$2@?0???0RaytraceEnviroment@@QEAA@HH@Z@4HA DD imagerel ?dtor$2@?0???0RaytraceEnviroment@@QEAA@HH@Z@4HA
	DD	imagerel ?dtor$2@?0???0RaytraceEnviroment@@QEAA@HH@Z@4HA+32
	DD	imagerel $unwind$?dtor$2@?0???0RaytraceEnviroment@@QEAA@HH@Z@4HA
pdata	ENDS
;	COMDAT pdata
pdata	SEGMENT
$pdata$?dtor$4@?0???0RaytraceEnviroment@@QEAA@HH@Z@4HA DD imagerel ?dtor$4@?0???0RaytraceEnviroment@@QEAA@HH@Z@4HA
	DD	imagerel ?dtor$4@?0???0RaytraceEnviroment@@QEAA@HH@Z@4HA+32
	DD	imagerel $unwind$?dtor$4@?0???0RaytraceEnviroment@@QEAA@HH@Z@4HA
pdata	ENDS
;	COMDAT pdata
pdata	SEGMENT
$pdata$?dtor$6@?0???0RaytraceEnviroment@@QEAA@HH@Z@4HA DD imagerel ?dtor$6@?0???0RaytraceEnviroment@@QEAA@HH@Z@4HA
	DD	imagerel ?dtor$6@?0???0RaytraceEnviroment@@QEAA@HH@Z@4HA+32
	DD	imagerel $unwind$?dtor$6@?0???0RaytraceEnviroment@@QEAA@HH@Z@4HA
pdata	ENDS
;	COMDAT pdata
pdata	SEGMENT
$pdata$?dtor$8@?0???0RaytraceEnviroment@@QEAA@HH@Z@4HA DD imagerel ?dtor$8@?0???0RaytraceEnviroment@@QEAA@HH@Z@4HA
	DD	imagerel ?dtor$8@?0???0RaytraceEnviroment@@QEAA@HH@Z@4HA+32
	DD	imagerel $unwind$?dtor$8@?0???0RaytraceEnviroment@@QEAA@HH@Z@4HA
pdata	ENDS
;	COMDAT pdata
pdata	SEGMENT
$pdata$?get_id@this_thread@std@@YA?AVid@thread@2@XZ DD imagerel $LN7@get_id
	DD	imagerel $LN7@get_id+26
	DD	imagerel $unwind$?get_id@this_thread@std@@YA?AVid@thread@2@XZ
pdata	ENDS
;	COMDAT pdata
pdata	SEGMENT
$pdata$?join@thread@std@@QEAAXXZ DD imagerel $LN23@join
	DD	imagerel $LN23@join+113
	DD	imagerel $unwind$?join@thread@std@@QEAAXXZ
pdata	ENDS
;	COMDAT pdata
pdata	SEGMENT
$pdata$??1thread@std@@QEAA@XZ DD imagerel $LN9@thread
	DD	imagerel $LN9@thread+22
	DD	imagerel $unwind$??1thread@std@@QEAA@XZ
pdata	ENDS
;	COMDAT pdata
pdata	SEGMENT
$pdata$?_Call_func@_Pad@std@@CAIPEAX@Z DD imagerel $LN4@Call_func
	DD	imagerel $LN4@Call_func+16
	DD	imagerel $unwind$?_Call_func@_Pad@std@@CAIPEAX@Z
pdata	ENDS
;	COMDAT pdata
pdata	SEGMENT
$pdata$?_Release@_Pad@std@@QEAAXXZ DD imagerel $LN19@Release
	DD	imagerel $LN19@Release+91
	DD	imagerel $unwind$?_Release@_Pad@std@@QEAAXXZ
pdata	ENDS
;	COMDAT pdata
pdata	SEGMENT
$pdata$?_Launch@_Pad@std@@QEAAXPEAU_Thrd_imp_t@@@Z DD imagerel $LN19@Launch
	DD	imagerel $LN19@Launch+102
	DD	imagerel $unwind$?_Launch@_Pad@std@@QEAAXPEAU_Thrd_imp_t@@@Z
pdata	ENDS
;	COMDAT pdata
pdata	SEGMENT
$pdata$??1_Pad@std@@QEAA@XZ DD imagerel $LN20@Pad
	DD	imagerel $LN20@Pad+81
	DD	imagerel $unwind$??1_Pad@std@@QEAA@XZ
pdata	ENDS
;	COMDAT pdata
pdata	SEGMENT
$pdata$??0_Pad@std@@QEAA@XZ DD imagerel $LN36@Pad
	DD	imagerel $LN36@Pad+137
	DD	imagerel $unwind$??0_Pad@std@@QEAA@XZ
pdata	ENDS
;	COMDAT pdata
pdata	SEGMENT
$pdata$?_Cnd_signalX@std@@YAHPEAU_Cnd_internal_imp_t@@@Z DD imagerel $LN8@Cnd_signal
	DD	imagerel $LN8@Cnd_signal+34
	DD	imagerel $unwind$?_Cnd_signalX@std@@YAHPEAU_Cnd_internal_imp_t@@@Z
pdata	ENDS
;	COMDAT pdata
pdata	SEGMENT
$pdata$?_Cnd_waitX@std@@YAHPEAU_Cnd_internal_imp_t@@PEAU_Mtx_internal_imp_t@@@Z DD imagerel $LN8@Cnd_waitX
	DD	imagerel $LN8@Cnd_waitX+34
	DD	imagerel $unwind$?_Cnd_waitX@std@@YAHPEAU_Cnd_internal_imp_t@@PEAU_Mtx_internal_imp_t@@@Z
pdata	ENDS
;	COMDAT pdata
pdata	SEGMENT
$pdata$?_Cnd_initX@std@@YAHPEAPEAU_Cnd_internal_imp_t@@@Z DD imagerel $LN8@Cnd_initX
	DD	imagerel $LN8@Cnd_initX+34
	DD	imagerel $unwind$?_Cnd_initX@std@@YAHPEAPEAU_Cnd_internal_imp_t@@@Z
pdata	ENDS
;	COMDAT pdata
pdata	SEGMENT
$pdata$?_Mtx_unlockX@std@@YAHPEAU_Mtx_internal_imp_t@@@Z DD imagerel $LN8@Mtx_unlock
	DD	imagerel $LN8@Mtx_unlock+34
	DD	imagerel $unwind$?_Mtx_unlockX@std@@YAHPEAU_Mtx_internal_imp_t@@@Z
pdata	ENDS
;	COMDAT pdata
pdata	SEGMENT
$pdata$?_Mtx_lockX@std@@YAHPEAU_Mtx_internal_imp_t@@@Z DD imagerel $LN8@Mtx_lockX
	DD	imagerel $LN8@Mtx_lockX+34
	DD	imagerel $unwind$?_Mtx_lockX@std@@YAHPEAU_Mtx_internal_imp_t@@@Z
pdata	ENDS
;	COMDAT pdata
pdata	SEGMENT
$pdata$?_Mtx_initX@std@@YAHPEAPEAU_Mtx_internal_imp_t@@H@Z DD imagerel $LN8@Mtx_initX
	DD	imagerel $LN8@Mtx_initX+39
	DD	imagerel $unwind$?_Mtx_initX@std@@YAHPEAPEAU_Mtx_internal_imp_t@@H@Z
pdata	ENDS
;	COMDAT pdata
pdata	SEGMENT
$pdata$?_Thrd_startX@std@@YAHPEAU_Thrd_imp_t@@P6AIPEAX@Z1@Z DD imagerel $LN8@Thrd_start
	DD	imagerel $LN8@Thrd_start+50
	DD	imagerel $unwind$?_Thrd_startX@std@@YAHPEAU_Thrd_imp_t@@P6AIPEAX@Z1@Z
pdata	ENDS
;	COMDAT pdata
pdata	SEGMENT
$pdata$?_Check_C_return@std@@YAHH@Z DD imagerel $LN6@Check_C_re
	DD	imagerel $LN6@Check_C_re+26
	DD	imagerel $unwind$?_Check_C_return@std@@YAHH@Z
pdata	ENDS
;	COMDAT pdata
pdata	SEGMENT
$pdata$?get_ray@Camera@@QEAA?AVRay@@MM@Z DD imagerel $LN30@get_ray
	DD	imagerel $LN30@get_ray+133
	DD	imagerel $unwind$?get_ray@Camera@@QEAA?AVRay@@MM@Z
pdata	ENDS
;	COMDAT pdata
pdata	SEGMENT
$pdata$??0Camera@@QEAA@MM@Z DD imagerel $LN20@Camera
	DD	imagerel $LN20@Camera+144
	DD	imagerel $unwind$??0Camera@@QEAA@MM@Z
pdata	ENDS
;	COMDAT pdata
pdata	SEGMENT
$pdata$?hit@HitableList@@UEBA_NAEBVRay@@MMAEAUhit_record@@@Z DD imagerel $LN19@hit
	DD	imagerel $LN19@hit+74
	DD	imagerel $unwind$?hit@HitableList@@UEBA_NAEBVRay@@MMAEAUhit_record@@@Z
pdata	ENDS
;	COMDAT pdata
pdata	SEGMENT
$pdata$0$?hit@HitableList@@UEBA_NAEBVRay@@MMAEAUhit_record@@@Z DD imagerel $LN19@hit+74
	DD	imagerel $LN19@hit+183
	DD	imagerel $chain$0$?hit@HitableList@@UEBA_NAEBVRay@@MMAEAUhit_record@@@Z
pdata	ENDS
;	COMDAT pdata
pdata	SEGMENT
$pdata$1$?hit@HitableList@@UEBA_NAEBVRay@@MMAEAUhit_record@@@Z DD imagerel $LN19@hit+183
	DD	imagerel $LN19@hit+225
	DD	imagerel $chain$1$?hit@HitableList@@UEBA_NAEBVRay@@MMAEAUhit_record@@@Z
pdata	ENDS
;	COMDAT pdata
pdata	SEGMENT
$pdata$?hit@Sphere@@UEBA_NAEBVRay@@MMAEAUhit_record@@@Z DD imagerel $LN66@hit
	DD	imagerel $LN66@hit+731
	DD	imagerel $unwind$?hit@Sphere@@UEBA_NAEBVRay@@MMAEAUhit_record@@@Z
pdata	ENDS
;	COMDAT pdata
pdata	SEGMENT
$pdata$?scatter@Dielectric@@UEBA_NAEBVRay@@AEBUhit_record@@AEAVVec3@@AEAV2@@Z DD imagerel $LN123@scatter
	DD	imagerel $LN123@scatter+74
	DD	imagerel $unwind$?scatter@Dielectric@@UEBA_NAEBVRay@@AEBUhit_record@@AEAVVec3@@AEAV2@@Z
pdata	ENDS
;	COMDAT pdata
pdata	SEGMENT
$pdata$7$?scatter@Dielectric@@UEBA_NAEBVRay@@AEBUhit_record@@AEAVVec3@@AEAV2@@Z DD imagerel $LN123@scatter+74
	DD	imagerel $LN123@scatter+713
	DD	imagerel $chain$7$?scatter@Dielectric@@UEBA_NAEBVRay@@AEBUhit_record@@AEAVVec3@@AEAV2@@Z
pdata	ENDS
;	COMDAT pdata
pdata	SEGMENT
$pdata$8$?scatter@Dielectric@@UEBA_NAEBVRay@@AEBUhit_record@@AEAVVec3@@AEAV2@@Z DD imagerel $LN123@scatter+713
	DD	imagerel $LN123@scatter+1256
	DD	imagerel $chain$8$?scatter@Dielectric@@UEBA_NAEBVRay@@AEBUhit_record@@AEAVVec3@@AEAV2@@Z
pdata	ENDS
;	COMDAT pdata
pdata	SEGMENT
$pdata$9$?scatter@Dielectric@@UEBA_NAEBVRay@@AEBUhit_record@@AEAVVec3@@AEAV2@@Z DD imagerel $LN123@scatter+1256
	DD	imagerel $LN123@scatter+1347
	DD	imagerel $chain$9$?scatter@Dielectric@@UEBA_NAEBVRay@@AEBUhit_record@@AEAVVec3@@AEAV2@@Z
pdata	ENDS
;	COMDAT pdata
pdata	SEGMENT
$pdata$?schlick@@YAMMM@Z DD imagerel $LN8@schlick
	DD	imagerel $LN8@schlick+91
	DD	imagerel $unwind$?schlick@@YAMMM@Z
pdata	ENDS
;	COMDAT pdata
pdata	SEGMENT
$pdata$?scatter@Metal@@UEBA_NAEBVRay@@AEBUhit_record@@AEAVVec3@@AEAV2@@Z DD imagerel $LN47@scatter
	DD	imagerel $LN47@scatter+501
	DD	imagerel $unwind$?scatter@Metal@@UEBA_NAEBVRay@@AEBUhit_record@@AEAVVec3@@AEAV2@@Z
pdata	ENDS
;	COMDAT pdata
pdata	SEGMENT
$pdata$?scatter@Lambertian@@UEBA_NAEBVRay@@AEBUhit_record@@AEAVVec3@@AEAV2@@Z DD imagerel $LN22@scatter
	DD	imagerel $LN22@scatter+292
	DD	imagerel $unwind$?scatter@Lambertian@@UEBA_NAEBVRay@@AEBUhit_record@@AEAVVec3@@AEAV2@@Z
pdata	ENDS
;	COMDAT pdata
pdata	SEGMENT
$pdata$?refract@@YA_NAEBVVec3@@0MAEAV1@@Z DD imagerel $LN40@refract
	DD	imagerel $LN40@refract+405
	DD	imagerel $unwind$?refract@@YA_NAEBVVec3@@0MAEAV1@@Z
pdata	ENDS
;	COMDAT pdata
pdata	SEGMENT
$pdata$?reflect@@YA?AVVec3@@AEBV1@0@Z DD imagerel $LN14@reflect
	DD	imagerel $LN14@reflect+148
	DD	imagerel $unwind$?reflect@@YA?AVVec3@@AEBV1@0@Z
pdata	ENDS
;	COMDAT pdata
pdata	SEGMENT
$pdata$?random_in_unit_sphere@@YA?AVVec3@@XZ DD imagerel $LN26@random_in_
	DD	imagerel $LN26@random_in_+225
	DD	imagerel $unwind$?random_in_unit_sphere@@YA?AVVec3@@XZ
pdata	ENDS
;	COMDAT pdata
pdata	SEGMENT
$pdata$?unit_vector@@YA?AVVec3@@V1@@Z DD imagerel $LN13@unit_vecto
	DD	imagerel $LN13@unit_vecto+120
	DD	imagerel $unwind$?unit_vector@@YA?AVVec3@@V1@@Z
pdata	ENDS
;	COMDAT pdata
pdata	SEGMENT
$pdata$?_Adjust_manually_vector_aligned@std@@YAXAEAPEAXAEA_K@Z DD imagerel $LN13@Adjust_man
	DD	imagerel $LN13@Adjust_man+43
	DD	imagerel $unwind$?_Adjust_manually_vector_aligned@std@@YAXAEAPEAXAEA_K@Z
;	COMDAT __xmm@80000000800000008000000080000000
CONST	SEGMENT
__xmm@80000000800000008000000080000000 DB 00H, 00H, 00H, 080H, 00H, 00H, 00H
	DB	080H, 00H, 00H, 00H, 080H, 00H, 00H, 00H, 080H
CONST	ENDS
;	COMDAT __xmm@00000000000000000000000000000006
CONST	SEGMENT
__xmm@00000000000000000000000000000006 DB 06H, 00H, 00H, 00H, 00H, 00H, 00H
	DB	00H, 00H, 00H, 00H, 00H, 00H, 00H, 00H, 00H
CONST	ENDS
;	COMDAT __real@c2c90000
CONST	SEGMENT
__real@c2c90000 DD 0c2c90000r			; -100.5
CONST	ENDS
;	COMDAT __real@c0000000
CONST	SEGMENT
__real@c0000000 DD 0c0000000r			; -2
CONST	ENDS
;	COMDAT __real@bf800000
CONST	SEGMENT
__real@bf800000 DD 0bf800000r			; -1
CONST	ENDS
;	COMDAT __real@7f7fffff
CONST	SEGMENT
__real@7f7fffff DD 07f7fffffr			; 3.40282e+38
CONST	ENDS
;	COMDAT __real@4b189680
CONST	SEGMENT
__real@4b189680 DD 04b189680r			; 1e+07
CONST	ENDS
;	COMDAT __real@46fffe00
CONST	SEGMENT
__real@46fffe00 DD 046fffe00r			; 32767
CONST	ENDS
;	COMDAT __real@40a00000
CONST	SEGMENT
__real@40a00000 DD 040a00000r			; 5
CONST	ENDS
;	COMDAT __real@40800000
CONST	SEGMENT
__real@40800000 DD 040800000r			; 4
CONST	ENDS
;	COMDAT __real@406fffae147ae148
CONST	SEGMENT
__real@406fffae147ae148 DQ 0406fffae147ae148r	; 255.99
CONST	ENDS
;	COMDAT __real@40000000
CONST	SEGMENT
__real@40000000 DD 040000000r			; 2
CONST	ENDS
;	COMDAT __real@3ff0000000000000
CONST	SEGMENT
__real@3ff0000000000000 DQ 03ff0000000000000r	; 1
CONST	ENDS
;	COMDAT __real@3fe0000000000000
CONST	SEGMENT
__real@3fe0000000000000 DQ 03fe0000000000000r	; 0.5
CONST	ENDS
;	COMDAT __real@3f800000
CONST	SEGMENT
__real@3f800000 DD 03f800000r			; 1
CONST	ENDS
;	COMDAT __real@3f4ccccd
CONST	SEGMENT
__real@3f4ccccd DD 03f4ccccdr			; 0.8
CONST	ENDS
;	COMDAT __real@3f333333
CONST	SEGMENT
__real@3f333333 DD 03f333333r			; 0.7
CONST	ENDS
;	COMDAT __real@3f19999a
CONST	SEGMENT
__real@3f19999a DD 03f19999ar			; 0.6
CONST	ENDS
;	COMDAT __real@3f000000
CONST	SEGMENT
__real@3f000000 DD 03f000000r			; 0.5
CONST	ENDS
;	COMDAT __real@3e99999a
CONST	SEGMENT
__real@3e99999a DD 03e99999ar			; 0.3
CONST	ENDS
;	COMDAT __real@3e4ccccd
CONST	SEGMENT
__real@3e4ccccd DD 03e4ccccdr			; 0.2
CONST	ENDS
;	COMDAT __real@3a83126f
CONST	SEGMENT
__real@3a83126f DD 03a83126fr			; 0.001
CONST	ENDS
;	COMDAT xdata
xdata	SEGMENT
$unwind$?_Adjust_manually_vector_aligned@std@@YAXAEAPEAXAEA_K@Z DD 010401H
	DD	04204H
xdata	ENDS
;	COMDAT xdata
xdata	SEGMENT
$unwind$?unit_vector@@YA?AVVec3@@V1@@Z DD 043301H
	DD	036833H
	DD	030027206H
xdata	ENDS
;	COMDAT xdata
xdata	SEGMENT
$unwind$?random_in_unit_sphere@@YA?AVVec3@@XZ DD 0a2801H
	DD	039828H
	DD	048819H
	DD	057813H
	DD	06680bH
	DD	03002d206H
xdata	ENDS
;	COMDAT xdata
xdata	SEGMENT
$unwind$?reflect@@YA?AVVec3@@AEBV1@0@Z DD 073901H
	DD	08839H
	DD	01782cH
	DD	026821H
	DD	06204H
xdata	ENDS
;	COMDAT xdata
xdata	SEGMENT
$unwind$?refract@@YA_NAEBVVec3@@0MAEAV1@@Z DD 0f4301H
	DD	04a843H
	DD	05983aH
	DD	068835H
	DD	077830H
	DD	08681aH
	DD	014340fH
	DD	012010fH
	DD	07008H
xdata	ENDS
;	COMDAT xdata
xdata	SEGMENT
$unwind$?scatter@Lambertian@@UEBA_NAEBVRay@@AEBUhit_record@@AEAVVec3@@AEAV2@@Z DD 0135b01H
	DD	05b85bH
	DD	06a850H
	DD	079845H
	DD	08883aH
	DD	097829H
	DD	0a6817H
	DD	0196413H
	DD	0183413H
	DD	0160113H
	DD	0700cH
xdata	ENDS
;	COMDAT xdata
xdata	SEGMENT
$unwind$?scatter@Metal@@UEBA_NAEBVRay@@AEBUhit_record@@AEAVVec3@@AEAV2@@Z DD 0155901H
	DD	05c859H
	DD	06b84cH
	DD	07a847H
	DD	089842H
	DD	09882eH
	DD	0a7826H
	DD	0b681fH
	DD	01b6413H
	DD	01a3413H
	DD	0180113H
	DD	0700cH
xdata	ENDS
;	COMDAT xdata
xdata	SEGMENT
$unwind$?schlick@@YAMMM@Z DD 051901H
	DD	027819H
	DD	036809H
	DD	08204H
xdata	ENDS
;	COMDAT xdata
xdata	SEGMENT
$chain$9$?scatter@Dielectric@@UEBA_NAEBVRay@@AEBUhit_record@@AEAVVec3@@AEAV2@@Z DD 020021H
	DD	0246400H
	DD	imagerel $LN123@scatter
	DD	imagerel $LN123@scatter+74
	DD	imagerel $unwind$?scatter@Dielectric@@UEBA_NAEBVRay@@AEBUhit_record@@AEAVVec3@@AEAV2@@Z
xdata	ENDS
;	COMDAT xdata
xdata	SEGMENT
$chain$8$?scatter@Dielectric@@UEBA_NAEBVRay@@AEBUhit_record@@AEAVVec3@@AEAV2@@Z DD 020821H
	DD	0246408H
	DD	imagerel $LN123@scatter+74
	DD	imagerel $LN123@scatter+713
	DD	imagerel $chain$7$?scatter@Dielectric@@UEBA_NAEBVRay@@AEBUhit_record@@AEAVVec3@@AEAV2@@Z
xdata	ENDS
;	COMDAT xdata
xdata	SEGMENT
$chain$7$?scatter@Dielectric@@UEBA_NAEBVRay@@AEBUhit_record@@AEAVVec3@@AEAV2@@Z DD 0109221H
	DD	07f892H
	DD	08e857H
	DD	0ac84fH
	DD	0bb825H
	DD	0ca820H
	DD	0d981bH
	DD	0f780eH
	DD	0106804H
	DD	imagerel $LN123@scatter
	DD	imagerel $LN123@scatter+74
	DD	imagerel $unwind$?scatter@Dielectric@@UEBA_NAEBVRay@@AEBUhit_record@@AEAVVec3@@AEAV2@@Z
xdata	ENDS
;	COMDAT xdata
xdata	SEGMENT
$unwind$?scatter@Dielectric@@UEBA_NAEBVRay@@AEBUhit_record@@AEAVVec3@@AEAV2@@Z DD 0d3d01H
	DD	09d83dH
	DD	0e8829H
	DD	027e41bH
	DD	026741bH
	DD	025341bH
	DD	022011bH
	DD	05010H
xdata	ENDS
;	COMDAT xdata
xdata	SEGMENT
$unwind$?hit@Sphere@@UEBA_NAEBVRay@@MMAEAUhit_record@@@Z DD 0136201H
	DD	05b862H
	DD	06a851H
	DD	079846H
	DD	088841H
	DD	097837H
	DD	0a682eH
	DD	0196413H
	DD	0183413H
	DD	0160113H
	DD	0700cH
xdata	ENDS
;	COMDAT xdata
xdata	SEGMENT
$chain$1$?hit@HitableList@@UEBA_NAEBVRay@@MMAEAUhit_record@@@Z DD 021H
	DD	imagerel $LN19@hit
	DD	imagerel $LN19@hit+74
	DD	imagerel $unwind$?hit@HitableList@@UEBA_NAEBVRay@@MMAEAUhit_record@@@Z
xdata	ENDS
;	COMDAT xdata
xdata	SEGMENT
$chain$0$?hit@HitableList@@UEBA_NAEBVRay@@MMAEAUhit_record@@@Z DD 020821H
	DD	0117408H
	DD	imagerel $LN19@hit
	DD	imagerel $LN19@hit+74
	DD	imagerel $unwind$?hit@HitableList@@UEBA_NAEBVRay@@MMAEAUhit_record@@@Z
xdata	ENDS
;	COMDAT xdata
xdata	SEGMENT
$unwind$?hit@HitableList@@UEBA_NAEBVRay@@MMAEAUhit_record@@@Z DD 0b2819H
	DD	067819H
	DD	076814H
	DD	012010fH
	DD	0e006f008H
	DD	050036004H
	DD	03002H
	DD	imagerel __GSHandlerCheck
	DD	058H
xdata	ENDS
;	COMDAT xdata
xdata	SEGMENT
$unwind$??0Camera@@QEAA@MM@Z DD 010401H
	DD	02204H
xdata	ENDS
;	COMDAT xdata
xdata	SEGMENT
$unwind$?get_ray@Camera@@QEAA?AVRay@@MM@Z DD 010401H
	DD	02204H
xdata	ENDS
;	COMDAT xdata
xdata	SEGMENT
$unwind$?_Check_C_return@std@@YAHH@Z DD 020601H
	DD	030023206H
xdata	ENDS
;	COMDAT xdata
xdata	SEGMENT
$unwind$?_Thrd_startX@std@@YAHPEAU_Thrd_imp_t@@P6AIPEAX@Z1@Z DD 020601H
	DD	030023206H
xdata	ENDS
;	COMDAT xdata
xdata	SEGMENT
$unwind$?_Mtx_initX@std@@YAHPEAPEAU_Mtx_internal_imp_t@@H@Z DD 020601H
	DD	030023206H
xdata	ENDS
;	COMDAT xdata
xdata	SEGMENT
$unwind$?_Mtx_lockX@std@@YAHPEAU_Mtx_internal_imp_t@@@Z DD 020601H
	DD	030023206H
xdata	ENDS
;	COMDAT xdata
xdata	SEGMENT
$unwind$?_Mtx_unlockX@std@@YAHPEAU_Mtx_internal_imp_t@@@Z DD 020601H
	DD	030023206H
xdata	ENDS
;	COMDAT xdata
xdata	SEGMENT
$unwind$?_Cnd_initX@std@@YAHPEAPEAU_Cnd_internal_imp_t@@@Z DD 020601H
	DD	030023206H
xdata	ENDS
;	COMDAT xdata
xdata	SEGMENT
$unwind$?_Cnd_waitX@std@@YAHPEAU_Cnd_internal_imp_t@@PEAU_Mtx_internal_imp_t@@@Z DD 020601H
	DD	030023206H
xdata	ENDS
;	COMDAT xdata
xdata	SEGMENT
$unwind$?_Cnd_signalX@std@@YAHPEAU_Cnd_internal_imp_t@@@Z DD 020601H
	DD	030023206H
xdata	ENDS
;	COMDAT xdata
xdata	SEGMENT
$ip2state$??0_Pad@std@@QEAA@XZ DD imagerel ??0_Pad@std@@QEAA@XZ+39
	DD	0ffffffffH
	DD	imagerel ??0_Pad@std@@QEAA@XZ+80
	DD	00H
	DD	imagerel ??0_Pad@std@@QEAA@XZ+116
	DD	01H
xdata	ENDS
;	COMDAT xdata
xdata	SEGMENT
$stateUnwindMap$??0_Pad@std@@QEAA@XZ DD 0ffffffffH
	DD	imagerel ?dtor$0@?0???0_Pad@std@@QEAA@XZ@4HA
	DD	00H
	DD	imagerel ?dtor$1@?0???0_Pad@std@@QEAA@XZ@4HA
xdata	ENDS
;	COMDAT CONST
CONST	SEGMENT
$cppxdata$??0_Pad@std@@QEAA@XZ DQ 00000000219930522r ; 4.45598e-314
	DD	imagerel $stateUnwindMap$??0_Pad@std@@QEAA@XZ
	DQ	00000000000000000r		; 0
	DD	03H
	DD	imagerel $ip2state$??0_Pad@std@@QEAA@XZ
	DQ	00000000000000020r		; 1.58101e-322
	DD	01H
CONST	ENDS
;	COMDAT xdata
xdata	SEGMENT
$unwind$??0_Pad@std@@QEAA@XZ DD 041411H
	DD	0c3414H
	DD	070029206H
	DD	imagerel __CxxFrameHandler3
	DD	imagerel $cppxdata$??0_Pad@std@@QEAA@XZ
xdata	ENDS
;	COMDAT xdata
xdata	SEGMENT
$ip2state$??1_Pad@std@@QEAA@XZ DD imagerel ??1_Pad@std@@QEAA@XZ+44
	DD	0ffffffffH
xdata	ENDS
;	COMDAT CONST
CONST	SEGMENT
$cppxdata$??1_Pad@std@@QEAA@XZ DQ 00000000019930522r ; 2.11987e-315
	DQ	00000000000000000r		; 0
	DQ	00000000100000000r		; 2.122e-314
	DD	imagerel $ip2state$??1_Pad@std@@QEAA@XZ
	DQ	00000000000000020r		; 1.58101e-322
	DD	05H
CONST	ENDS
;	COMDAT xdata
xdata	SEGMENT
$unwind$??1_Pad@std@@QEAA@XZ DD 041419H
	DD	083414H
	DD	070025206H
	DD	imagerel __CxxFrameHandler3
	DD	imagerel $cppxdata$??1_Pad@std@@QEAA@XZ
xdata	ENDS
;	COMDAT xdata
xdata	SEGMENT
$unwind$?_Launch@_Pad@std@@QEAAXPEAU_Thrd_imp_t@@@Z DD 020601H
	DD	030023206H
xdata	ENDS
;	COMDAT xdata
xdata	SEGMENT
$unwind$?_Release@_Pad@std@@QEAAXXZ DD 020601H
	DD	030023206H
xdata	ENDS
;	COMDAT xdata
xdata	SEGMENT
$unwind$?_Call_func@_Pad@std@@CAIPEAX@Z DD 010401H
	DD	04204H
xdata	ENDS
;	COMDAT xdata
xdata	SEGMENT
$unwind$??1thread@std@@QEAA@XZ DD 010401H
	DD	04204H
xdata	ENDS
;	COMDAT xdata
xdata	SEGMENT
$unwind$?join@thread@std@@QEAAXXZ DD 020601H
	DD	030025206H
xdata	ENDS
;	COMDAT xdata
xdata	SEGMENT
$unwind$?get_id@this_thread@std@@YA?AVid@thread@2@XZ DD 020601H
	DD	030023206H
xdata	ENDS
;	COMDAT xdata
xdata	SEGMENT
$unwind$?dtor$8@?0???0RaytraceEnviroment@@QEAA@HH@Z@4HA DD 020601H
	DD	050023206H
xdata	ENDS
;	COMDAT xdata
xdata	SEGMENT
$unwind$?dtor$6@?0???0RaytraceEnviroment@@QEAA@HH@Z@4HA DD 020601H
	DD	050023206H
xdata	ENDS
;	COMDAT xdata
xdata	SEGMENT
$unwind$?dtor$4@?0???0RaytraceEnviroment@@QEAA@HH@Z@4HA DD 020601H
	DD	050023206H
xdata	ENDS
;	COMDAT xdata
xdata	SEGMENT
$unwind$?dtor$2@?0???0RaytraceEnviroment@@QEAA@HH@Z@4HA DD 020601H
	DD	050023206H
xdata	ENDS
;	COMDAT xdata
xdata	SEGMENT
$unwind$?dtor$0@?0???0RaytraceEnviroment@@QEAA@HH@Z@4HA DD 020601H
	DD	050023206H
xdata	ENDS
;	COMDAT xdata
xdata	SEGMENT
$ip2state$??0RaytraceEnviroment@@QEAA@HH@Z DD imagerel ??0RaytraceEnviroment@@QEAA@HH@Z+74
	DD	0ffffffffH
	DD	imagerel ??0RaytraceEnviroment@@QEAA@HH@Z+91
	DD	00H
	DD	imagerel ??0RaytraceEnviroment@@QEAA@HH@Z+222
	DD	0ffffffffH
	DD	imagerel ??0RaytraceEnviroment@@QEAA@HH@Z+239
	DD	01H
	DD	imagerel ??0RaytraceEnviroment@@QEAA@HH@Z+336
	DD	0ffffffffH
	DD	imagerel ??0RaytraceEnviroment@@QEAA@HH@Z+353
	DD	02H
	DD	imagerel ??0RaytraceEnviroment@@QEAA@HH@Z+476
	DD	0ffffffffH
	DD	imagerel ??0RaytraceEnviroment@@QEAA@HH@Z+493
	DD	03H
	DD	imagerel ??0RaytraceEnviroment@@QEAA@HH@Z+573
	DD	0ffffffffH
	DD	imagerel ??0RaytraceEnviroment@@QEAA@HH@Z+590
	DD	04H
	DD	imagerel ??0RaytraceEnviroment@@QEAA@HH@Z+663
	DD	0ffffffffH
xdata	ENDS
;	COMDAT xdata
xdata	SEGMENT
$stateUnwindMap$??0RaytraceEnviroment@@QEAA@HH@Z DD 0ffffffffH
	DD	imagerel ?dtor$0@?0???0RaytraceEnviroment@@QEAA@HH@Z@4HA
	DD	0ffffffffH
	DD	imagerel ?dtor$2@?0???0RaytraceEnviroment@@QEAA@HH@Z@4HA
	DD	0ffffffffH
	DD	imagerel ?dtor$4@?0???0RaytraceEnviroment@@QEAA@HH@Z@4HA
	DD	0ffffffffH
	DD	imagerel ?dtor$6@?0???0RaytraceEnviroment@@QEAA@HH@Z@4HA
	DD	0ffffffffH
	DD	imagerel ?dtor$8@?0???0RaytraceEnviroment@@QEAA@HH@Z@4HA
xdata	ENDS
;	COMDAT CONST
CONST	SEGMENT
$cppxdata$??0RaytraceEnviroment@@QEAA@HH@Z DQ 00000000519930522r ; 1.0822e-313
	DD	imagerel $stateUnwindMap$??0RaytraceEnviroment@@QEAA@HH@Z
	DQ	00000000000000000r		; 0
	DD	0bH
	DD	imagerel $ip2state$??0RaytraceEnviroment@@QEAA@HH@Z
	DQ	00000000000000020r		; 1.58101e-322
	DD	01H
CONST	ENDS
;	COMDAT xdata
xdata	SEGMENT
$unwind$??0RaytraceEnviroment@@QEAA@HH@Z DD 0102f11H
	DD	04882fH
	DD	05782aH
	DD	066826H
	DD	0166422H
	DD	015341eH
	DD	0f00bd212H
	DD	0c007e009H
	DD	050047005H
	DD	imagerel __CxxFrameHandler3
	DD	imagerel $cppxdata$??0RaytraceEnviroment@@QEAA@HH@Z
xdata	ENDS
;	COMDAT xdata
xdata	SEGMENT
$chain$1$?color@@YA?AVVec3@@AEBVRay@@PEAVHitable@@H@Z DD 021H
	DD	imagerel $LN63@color
	DD	imagerel $LN63@color+248
	DD	imagerel $unwind$?color@@YA?AVVec3@@AEBVRay@@PEAVHitable@@H@Z
xdata	ENDS
;	COMDAT xdata
xdata	SEGMENT
$chain$0$?color@@YA?AVVec3@@AEBVRay@@PEAVHitable@@H@Z DD 020821H
	DD	0a6808H
	DD	imagerel $LN63@color
	DD	imagerel $LN63@color+248
	DD	imagerel $unwind$?color@@YA?AVVec3@@AEBVRay@@PEAVHitable@@H@Z
xdata	ENDS
;	COMDAT xdata
xdata	SEGMENT
$unwind$?color@@YA?AVVec3@@AEBVRay@@PEAVHitable@@H@Z DD 061e19H
	DD	017010cH
	DD	060047005H
	DD	030025003H
	DD	imagerel __GSHandlerCheck
	DD	098H
xdata	ENDS
;	COMDAT xdata
xdata	SEGMENT
$chain$4$?single_pixel@@YAXPEAURayTraceTreadConfig@@@Z DD 021H
	DD	imagerel $LN65@single_pix
	DD	imagerel $LN65@single_pix+47
	DD	imagerel $unwind$?single_pixel@@YAXPEAURayTraceTreadConfig@@@Z
xdata	ENDS
;	COMDAT xdata
xdata	SEGMENT
$chain$3$?single_pixel@@YAXPEAURayTraceTreadConfig@@@Z DD 021H
	DD	imagerel $LN65@single_pix+47
	DD	imagerel $LN65@single_pix+72
	DD	imagerel $chain$0$?single_pixel@@YAXPEAURayTraceTreadConfig@@@Z
xdata	ENDS
;	COMDAT xdata
xdata	SEGMENT
$chain$2$?single_pixel@@YAXPEAURayTraceTreadConfig@@@Z DD 040a21H
	DD	06a80aH
	DD	0a6805H
	DD	imagerel $LN65@single_pix+47
	DD	imagerel $LN65@single_pix+72
	DD	imagerel $chain$0$?single_pixel@@YAXPEAURayTraceTreadConfig@@@Z
xdata	ENDS
;	COMDAT xdata
xdata	SEGMENT
$chain$0$?single_pixel@@YAXPEAURayTraceTreadConfig@@@Z DD 020421H
	DD	0197404H
	DD	imagerel $LN65@single_pix
	DD	imagerel $LN65@single_pix+47
	DD	imagerel $unwind$?single_pixel@@YAXPEAURayTraceTreadConfig@@@Z
xdata	ENDS
;	COMDAT xdata
xdata	SEGMENT
$unwind$?single_pixel@@YAXPEAURayTraceTreadConfig@@@Z DD 092919H
	DD	07981aH
	DD	088815H
	DD	097810H
	DD	016010bH
	DD	03004H
	DD	imagerel __GSHandlerCheck
	DD	058H
xdata	ENDS
;	COMDAT xdata
xdata	SEGMENT
$chain$1$?single_thread@@YAXPEAURayTraceTreadConfig@@H@Z DD 021H
	DD	imagerel $LN12@single_thr
	DD	imagerel $LN12@single_thr+9
	DD	imagerel $unwind$?single_thread@@YAXPEAURayTraceTreadConfig@@H@Z
xdata	ENDS
;	COMDAT xdata
xdata	SEGMENT
$chain$0$?single_thread@@YAXPEAURayTraceTreadConfig@@H@Z DD 020521H
	DD	067405H
	DD	imagerel $LN12@single_thr
	DD	imagerel $LN12@single_thr+9
	DD	imagerel $unwind$?single_thread@@YAXPEAURayTraceTreadConfig@@H@Z
xdata	ENDS
;	COMDAT xdata
xdata	SEGMENT
$unwind$?single_thread@@YAXPEAURayTraceTreadConfig@@H@Z DD 020901H
	DD	030053209H
xdata	ENDS
;	COMDAT xdata
xdata	SEGMENT
$ip2state$?ray_tracing_main@RaytraceEnviroment@@QEAAHPEAIHHH@Z DD imagerel ?ray_tracing_main@RaytraceEnviroment@@QEAAHPEAIHHH@Z+275
	DD	00H
	DD	imagerel ?ray_tracing_main@RaytraceEnviroment@@QEAAHPEAIHHH@Z+320
	DD	01H
	DD	imagerel ?ray_tracing_main@RaytraceEnviroment@@QEAAHPEAIHHH@Z+359
	DD	02H
	DD	imagerel ?ray_tracing_main@RaytraceEnviroment@@QEAAHPEAIHHH@Z+393
	DD	03H
	DD	imagerel ?ray_tracing_main@RaytraceEnviroment@@QEAAHPEAIHHH@Z+466
	DD	04H
	DD	imagerel ?ray_tracing_main@RaytraceEnviroment@@QEAAHPEAIHHH@Z+512
	DD	01H
	DD	imagerel ?ray_tracing_main@RaytraceEnviroment@@QEAAHPEAIHHH@Z+555
	DD	05H
	DD	imagerel ?ray_tracing_main@RaytraceEnviroment@@QEAAHPEAIHHH@Z+626
	DD	06H
	DD	imagerel ?ray_tracing_main@RaytraceEnviroment@@QEAAHPEAIHHH@Z+705
	DD	00H
	DD	imagerel ?ray_tracing_main@RaytraceEnviroment@@QEAAHPEAIHHH@Z+816
	DD	0ffffffffH
xdata	ENDS
;	COMDAT xdata
xdata	SEGMENT
$stateUnwindMap$?ray_tracing_main@RaytraceEnviroment@@QEAAHPEAIHHH@Z DD 0ffffffffH
	DD	imagerel ?dtor$0@?0??ray_tracing_main@RaytraceEnviroment@@QEAAHPEAIHHH@Z@4HA
	DD	00H
	DD	imagerel ?dtor$2@?0??ray_tracing_main@RaytraceEnviroment@@QEAAHPEAIHHH@Z@4HA
	DD	01H
	DD	imagerel ?dtor$7@?0??ray_tracing_main@RaytraceEnviroment@@QEAAHPEAIHHH@Z@4HA
	DD	02H
	DD	imagerel ?dtor$8@?0??ray_tracing_main@RaytraceEnviroment@@QEAAHPEAIHHH@Z@4HA
	DD	01H
	DD	imagerel ?dtor$4@?0??ray_tracing_main@RaytraceEnviroment@@QEAAHPEAIHHH@Z@4HA
	DD	01H
	DD	imagerel __imp___std_terminate
	DD	00H
	DD	imagerel ?dtor$1@?0??ray_tracing_main@RaytraceEnviroment@@QEAAHPEAIHHH@Z@4HA
xdata	ENDS
;	COMDAT CONST
CONST	SEGMENT
$cppxdata$?ray_tracing_main@RaytraceEnviroment@@QEAAHPEAIHHH@Z DD 019930522H
	DD	07H
	DD	imagerel $stateUnwindMap$?ray_tracing_main@RaytraceEnviroment@@QEAAHPEAIHHH@Z
	DD	00H
	DD	00H
	DD	0aH
	DD	imagerel $ip2state$?ray_tracing_main@RaytraceEnviroment@@QEAAHPEAIHHH@Z
	DD	0a8H
	DD	00H
	DD	01H
CONST	ENDS
;	COMDAT xdata
xdata	SEGMENT
$unwind$?ray_tracing_main@RaytraceEnviroment@@QEAAHPEAIHHH@Z DD 0d2b11H
	DD	01e742bH
	DD	01d6427H
	DD	01c3423H
	DD	0160117H
	DD	0e00af00cH
	DD	0c006d008H
	DD	05004H
	DD	imagerel __CxxFrameHandler3
	DD	imagerel $cppxdata$?ray_tracing_main@RaytraceEnviroment@@QEAAHPEAIHHH@Z
xdata	ENDS
;	COMDAT xdata
xdata	SEGMENT
$unwind$??1?$vector@Vthread@std@@V?$allocator@Vthread@std@@@2@@std@@QEAA@XZ DD 020601H
	DD	030023206H
xdata	ENDS
;	COMDAT xdata
xdata	SEGMENT
$unwind$?_Tidy@?$vector@Vthread@std@@V?$allocator@Vthread@std@@@2@@std@@AEAAXXZ DD 020601H
	DD	030023206H
xdata	ENDS
;	COMDAT xdata
xdata	SEGMENT
$unwind$?_Destroy@?$vector@Vthread@std@@V?$allocator@Vthread@std@@@2@@std@@AEAAXPEAVthread@2@0@Z DD 010401H
	DD	04204H
xdata	ENDS
;	COMDAT xdata
xdata	SEGMENT
$unwind$?deallocate@?$allocator@Vthread@std@@@std@@QEAAXQEAVthread@2@_K@Z DD 010401H
	DD	04204H
xdata	ENDS
;	COMDAT xdata
xdata	SEGMENT
$ip2state$??$?0A6AXPEAURayTraceTreadConfig@@H@ZPEAU0@AEAHX@thread@std@@QEAA@A6AXPEAURayTraceTreadConfig@@H@Z$$QEAPEAU2@AEAH@Z DD imagerel ??$?0A6AXPEAURayTraceTreadConfig@@H@ZPEAU0@AEAHX@thread@std@@QEAA@A6AXPEAURayTraceTreadConfig@@H@Z$$QEAPEAU2@AEAH@Z+46
	DD	0ffffffffH
	DD	imagerel ??$?0A6AXPEAURayTraceTreadConfig@@H@ZPEAU0@AEAHX@thread@std@@QEAA@A6AXPEAURayTraceTreadConfig@@H@Z$$QEAPEAU2@AEAH@Z+101
	DD	00H
	DD	imagerel ??$?0A6AXPEAURayTraceTreadConfig@@H@ZPEAU0@AEAHX@thread@std@@QEAA@A6AXPEAURayTraceTreadConfig@@H@Z$$QEAPEAU2@AEAH@Z+146
	DD	01H
	DD	imagerel ??$?0A6AXPEAURayTraceTreadConfig@@H@ZPEAU0@AEAHX@thread@std@@QEAA@A6AXPEAURayTraceTreadConfig@@H@Z$$QEAPEAU2@AEAH@Z+183
	DD	02H
	DD	imagerel ??$?0A6AXPEAURayTraceTreadConfig@@H@ZPEAU0@AEAHX@thread@std@@QEAA@A6AXPEAURayTraceTreadConfig@@H@Z$$QEAPEAU2@AEAH@Z+252
	DD	03H
	DD	imagerel ??$?0A6AXPEAURayTraceTreadConfig@@H@ZPEAU0@AEAHX@thread@std@@QEAA@A6AXPEAURayTraceTreadConfig@@H@Z$$QEAPEAU2@AEAH@Z+307
	DD	00H
	DD	imagerel ??$?0A6AXPEAURayTraceTreadConfig@@H@ZPEAU0@AEAHX@thread@std@@QEAA@A6AXPEAURayTraceTreadConfig@@H@Z$$QEAPEAU2@AEAH@Z+353
	DD	04H
xdata	ENDS
;	COMDAT xdata
xdata	SEGMENT
$stateUnwindMap$??$?0A6AXPEAURayTraceTreadConfig@@H@ZPEAU0@AEAHX@thread@std@@QEAA@A6AXPEAURayTraceTreadConfig@@H@Z$$QEAPEAU2@AEAH@Z DD 0ffffffffH
	DD	imagerel ?dtor$0@?0???$?0A6AXPEAURayTraceTreadConfig@@H@ZPEAU0@AEAHX@thread@std@@QEAA@A6AXPEAURayTraceTreadConfig@@H@Z$$QEAPEAU2@AEAH@Z@4HA
	DD	00H
	DD	imagerel ?dtor$5@?0???$?0A6AXPEAURayTraceTreadConfig@@H@ZPEAU0@AEAHX@thread@std@@QEAA@A6AXPEAURayTraceTreadConfig@@H@Z$$QEAPEAU2@AEAH@Z@4HA
	DD	01H
	DD	imagerel ?dtor$6@?0???$?0A6AXPEAURayTraceTreadConfig@@H@ZPEAU0@AEAHX@thread@std@@QEAA@A6AXPEAURayTraceTreadConfig@@H@Z$$QEAPEAU2@AEAH@Z@4HA
	DD	00H
	DD	imagerel ?dtor$2@?0???$?0A6AXPEAURayTraceTreadConfig@@H@ZPEAU0@AEAHX@thread@std@@QEAA@A6AXPEAURayTraceTreadConfig@@H@Z$$QEAPEAU2@AEAH@Z@4HA
	DD	00H
	DD	imagerel __std_terminate
xdata	ENDS
;	COMDAT CONST
CONST	SEGMENT
$cppxdata$??$?0A6AXPEAURayTraceTreadConfig@@H@ZPEAU0@AEAHX@thread@std@@QEAA@A6AXPEAURayTraceTreadConfig@@H@Z$$QEAPEAU2@AEAH@Z DQ 00000000519930522r ; 1.0822e-313
	DD	imagerel $stateUnwindMap$??$?0A6AXPEAURayTraceTreadConfig@@H@ZPEAU0@AEAHX@thread@std@@QEAA@A6AXPEAURayTraceTreadConfig@@H@Z$$QEAPEAU2@AEAH@Z
	DQ	00000000000000000r		; 0
	DD	07H
	DD	imagerel $ip2state$??$?0A6AXPEAURayTraceTreadConfig@@H@ZPEAU0@AEAHX@thread@std@@QEAA@A6AXPEAURayTraceTreadConfig@@H@Z$$QEAPEAU2@AEAH@Z
	DQ	00000000000000020r		; 1.58101e-322
	DD	01H
CONST	ENDS
;	COMDAT xdata
xdata	SEGMENT
$unwind$??$?0A6AXPEAURayTraceTreadConfig@@H@ZPEAU0@AEAHX@thread@std@@QEAA@A6AXPEAURayTraceTreadConfig@@H@Z$$QEAPEAU2@AEAH@Z DD 082011H
	DD	0136420H
	DD	012541cH
	DD	0103418H
	DD	07008d20cH
	DD	imagerel __CxxFrameHandler3
	DD	imagerel $cppxdata$??$?0A6AXPEAURayTraceTreadConfig@@H@ZPEAU0@AEAHX@thread@std@@QEAA@A6AXPEAURayTraceTreadConfig@@H@Z$$QEAPEAU2@AEAH@Z
xdata	ENDS
;	COMDAT xdata
xdata	SEGMENT
$chain$6$??$_Emplace_reallocate@Vthread@std@@@?$vector@Vthread@std@@V?$allocator@Vthread@std@@@2@@std@@QEAAPEAVthread@1@QEAV21@$$QEAV21@@Z DD 021H
	DD	imagerel $LN549@Emplace_re
	DD	imagerel $LN549@Emplace_re+66
	DD	imagerel $unwind$??$_Emplace_reallocate@Vthread@std@@@?$vector@Vthread@std@@V?$allocator@Vthread@std@@@2@@std@@QEAAPEAVthread@1@QEAV21@$$QEAV21@@Z
xdata	ENDS
;	COMDAT xdata
xdata	SEGMENT
$chain$5$??$_Emplace_reallocate@Vthread@std@@@?$vector@Vthread@std@@V?$allocator@Vthread@std@@@2@@std@@QEAAPEAVthread@1@QEAV21@$$QEAV21@@Z DD 080021H
	DD	04d400H
	DD	0cc400H
	DD	0b7400H
	DD	0a5400H
	DD	imagerel $LN549@Emplace_re
	DD	imagerel $LN549@Emplace_re+66
	DD	imagerel $unwind$??$_Emplace_reallocate@Vthread@std@@@?$vector@Vthread@std@@V?$allocator@Vthread@std@@@2@@std@@QEAAPEAVthread@1@QEAV21@$$QEAV21@@Z
xdata	ENDS
;	COMDAT xdata
xdata	SEGMENT
$chain$3$??$_Emplace_reallocate@Vthread@std@@@?$vector@Vthread@std@@V?$allocator@Vthread@std@@@2@@std@@QEAAPEAVthread@1@QEAV21@$$QEAV21@@Z DD 084021H
	DD	0b7440H
	DD	04d423H
	DD	0cc415H
	DD	0a5405H
	DD	imagerel $LN549@Emplace_re
	DD	imagerel $LN549@Emplace_re+66
	DD	imagerel $unwind$??$_Emplace_reallocate@Vthread@std@@@?$vector@Vthread@std@@V?$allocator@Vthread@std@@@2@@std@@QEAAPEAVthread@1@QEAV21@$$QEAV21@@Z
xdata	ENDS
;	COMDAT xdata
xdata	SEGMENT
$unwind$??$_Emplace_reallocate@Vthread@std@@@?$vector@Vthread@std@@V?$allocator@Vthread@std@@@2@@std@@QEAAPEAVthread@1@QEAV21@$$QEAV21@@Z DD 050b01H
	DD	0f007420bH
	DD	06003e005H
	DD	03002H
xdata	ENDS
;	COMDAT xdata
xdata	SEGMENT
$unwind$??$_Allocate@$0BA@U_Default_allocate_traits@std@@$0A@@std@@YAPEAX_K@Z DD 010401H
	DD	04204H
xdata	ENDS
;	COMDAT xdata
xdata	SEGMENT
$unwind$??$_Deallocate@$0BA@$0A@@std@@YAXPEAX_K@Z DD 010401H
	DD	04204H
xdata	ENDS
;	COMDAT xdata
xdata	SEGMENT
$unwind$??$_Destroy_range@V?$allocator@Vthread@std@@@std@@@std@@YAXPEAVthread@0@0AEAV?$allocator@Vthread@std@@@0@@Z DD 010401H
	DD	04204H
xdata	ENDS
;	COMDAT xdata
xdata	SEGMENT
$unwind$?_Xlength@?$vector@Vthread@std@@V?$allocator@Vthread@std@@@2@@std@@CAXXZ DD 010401H
	DD	04204H
xdata	ENDS
;	COMDAT xdata
xdata	SEGMENT
$unwind$?_Change_array@?$vector@Vthread@std@@V?$allocator@Vthread@std@@@2@@std@@AEAAXQEAVthread@2@_K1@Z DD 081401H
	DD	086414H
	DD	075414H
	DD	063414H
	DD	070103214H
xdata	ENDS
;	COMDAT xdata
xdata	SEGMENT
$unwind$?allocate@?$allocator@Vthread@std@@@std@@QEAAPEAVthread@2@_K@Z DD 010401H
	DD	04204H
xdata	ENDS
;	COMDAT xdata
xdata	SEGMENT
$unwind$??$make_unique@V?$tuple@P6AXPEAURayTraceTreadConfig@@H@ZPEAU1@H@std@@A6AXPEAURayTraceTreadConfig@@H@ZPEAU3@AEAH$0A@@std@@YA?AV?$unique_ptr@V?$tuple@P6AXPEAURayTraceTreadConfig@@H@ZPEAU1@H@std@@U?$default_delete@V?$tuple@P6AXPEAURayTraceTreadConfig@@H@ZPEAU1@H@std@@@2@@0@A6AXPEAURayTraceTreadConfig@@H@Z$$QEAPEAU2@AEAH@Z DD 081501H
	DD	087415H
	DD	076415H
	DD	063415H
	DD	0e0113215H
xdata	ENDS
;	COMDAT xdata
xdata	SEGMENT
$ip2state$??$_Launch@V?$unique_ptr@V?$tuple@P6AXPEAURayTraceTreadConfig@@H@ZPEAU1@H@std@@U?$default_delete@V?$tuple@P6AXPEAURayTraceTreadConfig@@H@ZPEAU1@H@std@@@2@@std@@@std@@YAXPEAU_Thrd_imp_t@@$$QEAV?$unique_ptr@V?$tuple@P6AXPEAURayTraceTreadConfig@@H@ZPEAU1@H@std@@U?$default_delete@V?$tuple@P6AXPEAURayTraceTreadConfig@@H@ZPEAU1@H@std@@@2@@0@@Z DD imagerel ??$_Launch@V?$unique_ptr@V?$tuple@P6AXPEAURayTraceTreadConfig@@H@ZPEAU1@H@std@@U?$default_delete@V?$tuple@P6AXPEAURayTraceTreadConfig@@H@ZPEAU1@H@std@@@2@@std@@@std@@YAXPEAU_Thrd_imp_t@@$$QEAV?$unique_ptr@V?$tuple@P6AXPEAURayTraceTreadConfig@@H@ZPEAU1@H@std@@U?$default_delete@V?$tuple@P6AXPEAURayTraceTreadConfig@@H@ZPEAU1@H@std@@@2@@0@@Z+46
	DD	0ffffffffH
	DD	imagerel ??$_Launch@V?$unique_ptr@V?$tuple@P6AXPEAURayTraceTreadConfig@@H@ZPEAU1@H@std@@U?$default_delete@V?$tuple@P6AXPEAURayTraceTreadConfig@@H@ZPEAU1@H@std@@@2@@std@@@std@@YAXPEAU_Thrd_imp_t@@$$QEAV?$unique_ptr@V?$tuple@P6AXPEAURayTraceTreadConfig@@H@ZPEAU1@H@std@@U?$default_delete@V?$tuple@P6AXPEAURayTraceTreadConfig@@H@ZPEAU1@H@std@@@2@@0@@Z+91
	DD	00H
	DD	imagerel ??$_Launch@V?$unique_ptr@V?$tuple@P6AXPEAURayTraceTreadConfig@@H@ZPEAU1@H@std@@U?$default_delete@V?$tuple@P6AXPEAURayTraceTreadConfig@@H@ZPEAU1@H@std@@@2@@std@@@std@@YAXPEAU_Thrd_imp_t@@$$QEAV?$unique_ptr@V?$tuple@P6AXPEAURayTraceTreadConfig@@H@ZPEAU1@H@std@@U?$default_delete@V?$tuple@P6AXPEAURayTraceTreadConfig@@H@ZPEAU1@H@std@@@2@@0@@Z+128
	DD	01H
	DD	imagerel ??$_Launch@V?$unique_ptr@V?$tuple@P6AXPEAURayTraceTreadConfig@@H@ZPEAU1@H@std@@U?$default_delete@V?$tuple@P6AXPEAURayTraceTreadConfig@@H@ZPEAU1@H@std@@@2@@std@@@std@@YAXPEAU_Thrd_imp_t@@$$QEAV?$unique_ptr@V?$tuple@P6AXPEAURayTraceTreadConfig@@H@ZPEAU1@H@std@@U?$default_delete@V?$tuple@P6AXPEAURayTraceTreadConfig@@H@ZPEAU1@H@std@@@2@@0@@Z+195
	DD	02H
	DD	imagerel ??$_Launch@V?$unique_ptr@V?$tuple@P6AXPEAURayTraceTreadConfig@@H@ZPEAU1@H@std@@U?$default_delete@V?$tuple@P6AXPEAURayTraceTreadConfig@@H@ZPEAU1@H@std@@@2@@std@@@std@@YAXPEAU_Thrd_imp_t@@$$QEAV?$unique_ptr@V?$tuple@P6AXPEAURayTraceTreadConfig@@H@ZPEAU1@H@std@@U?$default_delete@V?$tuple@P6AXPEAURayTraceTreadConfig@@H@ZPEAU1@H@std@@@2@@0@@Z+243
	DD	0ffffffffH
	DD	imagerel ??$_Launch@V?$unique_ptr@V?$tuple@P6AXPEAURayTraceTreadConfig@@H@ZPEAU1@H@std@@U?$default_delete@V?$tuple@P6AXPEAURayTraceTreadConfig@@H@ZPEAU1@H@std@@@2@@std@@@std@@YAXPEAU_Thrd_imp_t@@$$QEAV?$unique_ptr@V?$tuple@P6AXPEAURayTraceTreadConfig@@H@ZPEAU1@H@std@@U?$default_delete@V?$tuple@P6AXPEAURayTraceTreadConfig@@H@ZPEAU1@H@std@@@2@@0@@Z+289
	DD	03H
xdata	ENDS
;	COMDAT xdata
xdata	SEGMENT
$stateUnwindMap$??$_Launch@V?$unique_ptr@V?$tuple@P6AXPEAURayTraceTreadConfig@@H@ZPEAU1@H@std@@U?$default_delete@V?$tuple@P6AXPEAURayTraceTreadConfig@@H@ZPEAU1@H@std@@@2@@std@@@std@@YAXPEAU_Thrd_imp_t@@$$QEAV?$unique_ptr@V?$tuple@P6AXPEAURayTraceTreadConfig@@H@ZPEAU1@H@std@@U?$default_delete@V?$tuple@P6AXPEAURayTraceTreadConfig@@H@ZPEAU1@H@std@@@2@@0@@Z DD 0ffffffffH
	DD	imagerel ?dtor$3@?0???$_Launch@V?$unique_ptr@V?$tuple@P6AXPEAURayTraceTreadConfig@@H@ZPEAU1@H@std@@U?$default_delete@V?$tuple@P6AXPEAURayTraceTreadConfig@@H@ZPEAU1@H@std@@@2@@std@@@std@@YAXPEAU_Thrd_imp_t@@$$QEAV?$unique_ptr@V?$tuple@P6AXPEAURayTraceTreadConfig@@H@ZPEAU1@H@std@@U?$default_delete@V?$tuple@P6AXPEAURayTraceTreadConfig@@H@ZPEAU1@H@std@@@2@@0@@Z@4HA
	DD	00H
	DD	imagerel ?dtor$4@?0???$_Launch@V?$unique_ptr@V?$tuple@P6AXPEAURayTraceTreadConfig@@H@ZPEAU1@H@std@@U?$default_delete@V?$tuple@P6AXPEAURayTraceTreadConfig@@H@ZPEAU1@H@std@@@2@@std@@@std@@YAXPEAU_Thrd_imp_t@@$$QEAV?$unique_ptr@V?$tuple@P6AXPEAURayTraceTreadConfig@@H@ZPEAU1@H@std@@U?$default_delete@V?$tuple@P6AXPEAURayTraceTreadConfig@@H@ZPEAU1@H@std@@@2@@0@@Z@4HA
	DD	0ffffffffH
	DD	imagerel ?dtor$0@?0???$_Launch@V?$unique_ptr@V?$tuple@P6AXPEAURayTraceTreadConfig@@H@ZPEAU1@H@std@@U?$default_delete@V?$tuple@P6AXPEAURayTraceTreadConfig@@H@ZPEAU1@H@std@@@2@@std@@@std@@YAXPEAU_Thrd_imp_t@@$$QEAV?$unique_ptr@V?$tuple@P6AXPEAURayTraceTreadConfig@@H@ZPEAU1@H@std@@U?$default_delete@V?$tuple@P6AXPEAURayTraceTreadConfig@@H@ZPEAU1@H@std@@@2@@0@@Z@4HA
	DD	0ffffffffH
	DD	imagerel __std_terminate
xdata	ENDS
;	COMDAT CONST
CONST	SEGMENT
$cppxdata$??$_Launch@V?$unique_ptr@V?$tuple@P6AXPEAURayTraceTreadConfig@@H@ZPEAU1@H@std@@U?$default_delete@V?$tuple@P6AXPEAURayTraceTreadConfig@@H@ZPEAU1@H@std@@@2@@std@@@std@@YAXPEAU_Thrd_imp_t@@$$QEAV?$unique_ptr@V?$tuple@P6AXPEAURayTraceTreadConfig@@H@ZPEAU1@H@std@@U?$default_delete@V?$tuple@P6AXPEAURayTraceTreadConfig@@H@ZPEAU1@H@std@@@2@@0@@Z DQ 00000000419930522r ; 8.69997e-314
	DD	imagerel $stateUnwindMap$??$_Launch@V?$unique_ptr@V?$tuple@P6AXPEAURayTraceTreadConfig@@H@ZPEAU1@H@std@@U?$default_delete@V?$tuple@P6AXPEAURayTraceTreadConfig@@H@ZPEAU1@H@std@@@2@@std@@@std@@YAXPEAU_Thrd_imp_t@@$$QEAV?$unique_ptr@V?$tuple@P6AXPEAURayTraceTreadConfig@@H@ZPEAU1@H@std@@U?$default_delete@V?$tuple@P6AXPEAURayTraceTreadConfig@@H@ZPEAU1@H@std@@@2@@0@@Z
	DQ	00000000000000000r		; 0
	DD	06H
	DD	imagerel $ip2state$??$_Launch@V?$unique_ptr@V?$tuple@P6AXPEAURayTraceTreadConfig@@H@ZPEAU1@H@std@@U?$default_delete@V?$tuple@P6AXPEAURayTraceTreadConfig@@H@ZPEAU1@H@std@@@2@@std@@@std@@YAXPEAU_Thrd_imp_t@@$$QEAV?$unique_ptr@V?$tuple@P6AXPEAURayTraceTreadConfig@@H@ZPEAU1@H@std@@U?$default_delete@V?$tuple@P6AXPEAURayTraceTreadConfig@@H@ZPEAU1@H@std@@@2@@0@@Z
	DQ	00000000000000020r		; 1.58101e-322
	DD	01H
CONST	ENDS
;	COMDAT xdata
xdata	SEGMENT
$unwind$??$_Launch@V?$unique_ptr@V?$tuple@P6AXPEAURayTraceTreadConfig@@H@ZPEAU1@H@std@@U?$default_delete@V?$tuple@P6AXPEAURayTraceTreadConfig@@H@ZPEAU1@H@std@@@2@@std@@@std@@YAXPEAU_Thrd_imp_t@@$$QEAV?$unique_ptr@V?$tuple@P6AXPEAURayTraceTreadConfig@@H@ZPEAU1@H@std@@U?$default_delete@V?$tuple@P6AXPEAURayTraceTreadConfig@@H@ZPEAU1@H@std@@@2@@0@@Z DD 061811H
	DD	0116418H
	DD	0103414H
	DD	07004d208H
	DD	imagerel __CxxFrameHandler3
	DD	imagerel $cppxdata$??$_Launch@V?$unique_ptr@V?$tuple@P6AXPEAURayTraceTreadConfig@@H@ZPEAU1@H@std@@U?$default_delete@V?$tuple@P6AXPEAURayTraceTreadConfig@@H@ZPEAU1@H@std@@@2@@std@@@std@@YAXPEAU_Thrd_imp_t@@$$QEAV?$unique_ptr@V?$tuple@P6AXPEAURayTraceTreadConfig@@H@ZPEAU1@H@std@@U?$default_delete@V?$tuple@P6AXPEAURayTraceTreadConfig@@H@ZPEAU1@H@std@@@2@@0@@Z
xdata	ENDS
;	COMDAT xdata
xdata	SEGMENT
$unwind$??$_Allocate_manually_vector_aligned@U_Default_allocate_traits@std@@@std@@YAPEAX_K@Z DD 010401H
	DD	04204H
xdata	ENDS
;	COMDAT xdata
xdata	SEGMENT
$unwind$??$_Destroy_range1@V?$allocator@Vthread@std@@@std@@@std@@YAXPEAVthread@0@0AEAV?$allocator@Vthread@std@@@0@U?$integral_constant@_N$0A@@0@@Z DD 010401H
	DD	04204H
xdata	ENDS
;	COMDAT xdata
xdata	SEGMENT
$ip2state$??1?$_LaunchPad@V?$unique_ptr@V?$tuple@P6AXPEAURayTraceTreadConfig@@H@ZPEAU1@H@std@@U?$default_delete@V?$tuple@P6AXPEAURayTraceTreadConfig@@H@ZPEAU1@H@std@@@2@@std@@@std@@QEAA@XZ DD imagerel ??1?$_LaunchPad@V?$unique_ptr@V?$tuple@P6AXPEAURayTraceTreadConfig@@H@ZPEAU1@H@std@@U?$default_delete@V?$tuple@P6AXPEAURayTraceTreadConfig@@H@ZPEAU1@H@std@@@2@@std@@@std@@QEAA@XZ+67
	DD	00H
xdata	ENDS
;	COMDAT xdata
xdata	SEGMENT
$stateUnwindMap$??1?$_LaunchPad@V?$unique_ptr@V?$tuple@P6AXPEAURayTraceTreadConfig@@H@ZPEAU1@H@std@@U?$default_delete@V?$tuple@P6AXPEAURayTraceTreadConfig@@H@ZPEAU1@H@std@@@2@@std@@@std@@QEAA@XZ DD 0ffffffffH
	DD	imagerel __std_terminate
xdata	ENDS
;	COMDAT CONST
CONST	SEGMENT
$cppxdata$??1?$_LaunchPad@V?$unique_ptr@V?$tuple@P6AXPEAURayTraceTreadConfig@@H@ZPEAU1@H@std@@U?$default_delete@V?$tuple@P6AXPEAURayTraceTreadConfig@@H@ZPEAU1@H@std@@@2@@std@@@std@@QEAA@XZ DQ 00000000119930522r ; 2.33398e-314
	DD	imagerel $stateUnwindMap$??1?$_LaunchPad@V?$unique_ptr@V?$tuple@P6AXPEAURayTraceTreadConfig@@H@ZPEAU1@H@std@@U?$default_delete@V?$tuple@P6AXPEAURayTraceTreadConfig@@H@ZPEAU1@H@std@@@2@@std@@@std@@QEAA@XZ
	DQ	00000000000000000r		; 0
	DD	01H
	DD	imagerel $ip2state$??1?$_LaunchPad@V?$unique_ptr@V?$tuple@P6AXPEAURayTraceTreadConfig@@H@ZPEAU1@H@std@@U?$default_delete@V?$tuple@P6AXPEAURayTraceTreadConfig@@H@ZPEAU1@H@std@@@2@@std@@@std@@QEAA@XZ
	DQ	00000000000000020r		; 1.58101e-322
	DD	05H
CONST	ENDS
;	COMDAT xdata
xdata	SEGMENT
$unwind$??1?$_LaunchPad@V?$unique_ptr@V?$tuple@P6AXPEAURayTraceTreadConfig@@H@ZPEAU1@H@std@@U?$default_delete@V?$tuple@P6AXPEAURayTraceTreadConfig@@H@ZPEAU1@H@std@@@2@@std@@@std@@QEAA@XZ DD 041419H
	DD	083414H
	DD	070025206H
	DD	imagerel __CxxFrameHandler3
	DD	imagerel $cppxdata$??1?$_LaunchPad@V?$unique_ptr@V?$tuple@P6AXPEAURayTraceTreadConfig@@H@ZPEAU1@H@std@@U?$default_delete@V?$tuple@P6AXPEAURayTraceTreadConfig@@H@ZPEAU1@H@std@@@2@@std@@@std@@QEAA@XZ
xdata	ENDS
;	COMDAT xdata
xdata	SEGMENT
$ip2state$?_Go@?$_LaunchPad@V?$unique_ptr@V?$tuple@P6AXPEAURayTraceTreadConfig@@H@ZPEAU1@H@std@@U?$default_delete@V?$tuple@P6AXPEAURayTraceTreadConfig@@H@ZPEAU1@H@std@@@2@@std@@@std@@UEAAXXZ DD imagerel ?_Go@?$_LaunchPad@V?$unique_ptr@V?$tuple@P6AXPEAURayTraceTreadConfig@@H@ZPEAU1@H@std@@U?$default_delete@V?$tuple@P6AXPEAURayTraceTreadConfig@@H@ZPEAU1@H@std@@@2@@std@@@std@@UEAAXXZ+51
	DD	00H
	DD	imagerel ?_Go@?$_LaunchPad@V?$unique_ptr@V?$tuple@P6AXPEAURayTraceTreadConfig@@H@ZPEAU1@H@std@@U?$default_delete@V?$tuple@P6AXPEAURayTraceTreadConfig@@H@ZPEAU1@H@std@@@2@@std@@@std@@UEAAXXZ+134
	DD	0ffffffffH
xdata	ENDS
;	COMDAT xdata
xdata	SEGMENT
$stateUnwindMap$?_Go@?$_LaunchPad@V?$unique_ptr@V?$tuple@P6AXPEAURayTraceTreadConfig@@H@ZPEAU1@H@std@@U?$default_delete@V?$tuple@P6AXPEAURayTraceTreadConfig@@H@ZPEAU1@H@std@@@2@@std@@@std@@UEAAXXZ DD 0ffffffffH
	DD	imagerel __std_terminate
xdata	ENDS
;	COMDAT CONST
CONST	SEGMENT
$cppxdata$?_Go@?$_LaunchPad@V?$unique_ptr@V?$tuple@P6AXPEAURayTraceTreadConfig@@H@ZPEAU1@H@std@@U?$default_delete@V?$tuple@P6AXPEAURayTraceTreadConfig@@H@ZPEAU1@H@std@@@2@@std@@@std@@UEAAXXZ DQ 00000000119930522r ; 2.33398e-314
	DD	imagerel $stateUnwindMap$?_Go@?$_LaunchPad@V?$unique_ptr@V?$tuple@P6AXPEAURayTraceTreadConfig@@H@ZPEAU1@H@std@@U?$default_delete@V?$tuple@P6AXPEAURayTraceTreadConfig@@H@ZPEAU1@H@std@@@2@@std@@@std@@UEAAXXZ
	DQ	00000000000000000r		; 0
	DD	02H
	DD	imagerel $ip2state$?_Go@?$_LaunchPad@V?$unique_ptr@V?$tuple@P6AXPEAURayTraceTreadConfig@@H@ZPEAU1@H@std@@U?$default_delete@V?$tuple@P6AXPEAURayTraceTreadConfig@@H@ZPEAU1@H@std@@@2@@std@@@std@@UEAAXXZ
	DQ	00000000000000020r		; 1.58101e-322
	DD	01H
CONST	ENDS
;	COMDAT xdata
xdata	SEGMENT
$unwind$?_Go@?$_LaunchPad@V?$unique_ptr@V?$tuple@P6AXPEAURayTraceTreadConfig@@H@ZPEAU1@H@std@@U?$default_delete@V?$tuple@P6AXPEAURayTraceTreadConfig@@H@ZPEAU1@H@std@@@2@@std@@@std@@UEAAXXZ DD 041411H
	DD	083414H
	DD	070025206H
	DD	imagerel __CxxFrameHandler3
	DD	imagerel $cppxdata$?_Go@?$_LaunchPad@V?$unique_ptr@V?$tuple@P6AXPEAURayTraceTreadConfig@@H@ZPEAU1@H@std@@U?$default_delete@V?$tuple@P6AXPEAURayTraceTreadConfig@@H@ZPEAU1@H@std@@@2@@std@@@std@@UEAAXXZ
xdata	ENDS
;	COMDAT xdata
xdata	SEGMENT
$ip2state$?_Run@?$_LaunchPad@V?$unique_ptr@V?$tuple@P6AXPEAURayTraceTreadConfig@@H@ZPEAU1@H@std@@U?$default_delete@V?$tuple@P6AXPEAURayTraceTreadConfig@@H@ZPEAU1@H@std@@@2@@std@@@std@@CAXPEAV12@@Z DD imagerel ?_Run@?$_LaunchPad@V?$unique_ptr@V?$tuple@P6AXPEAURayTraceTreadConfig@@H@ZPEAU1@H@std@@U?$default_delete@V?$tuple@P6AXPEAURayTraceTreadConfig@@H@ZPEAU1@H@std@@@2@@std@@@std@@CAXPEAV12@@Z+52
	DD	0ffffffffH
xdata	ENDS
;	COMDAT CONST
CONST	SEGMENT
$cppxdata$?_Run@?$_LaunchPad@V?$unique_ptr@V?$tuple@P6AXPEAURayTraceTreadConfig@@H@ZPEAU1@H@std@@U?$default_delete@V?$tuple@P6AXPEAURayTraceTreadConfig@@H@ZPEAU1@H@std@@@2@@std@@@std@@CAXPEAV12@@Z DQ 00000000019930522r ; 2.11987e-315
	DQ	00000000000000000r		; 0
	DQ	00000000100000000r		; 2.122e-314
	DD	imagerel $ip2state$?_Run@?$_LaunchPad@V?$unique_ptr@V?$tuple@P6AXPEAURayTraceTreadConfig@@H@ZPEAU1@H@std@@U?$default_delete@V?$tuple@P6AXPEAURayTraceTreadConfig@@H@ZPEAU1@H@std@@@2@@std@@@std@@CAXPEAV12@@Z
	DQ	00000000000000020r		; 1.58101e-322
	DD	05H
CONST	ENDS
;	COMDAT xdata
xdata	SEGMENT
$unwind$?_Run@?$_LaunchPad@V?$unique_ptr@V?$tuple@P6AXPEAURayTraceTreadConfig@@H@ZPEAU1@H@std@@U?$default_delete@V?$tuple@P6AXPEAURayTraceTreadConfig@@H@ZPEAU1@H@std@@@2@@std@@@std@@CAXPEAV12@@Z DD 041419H
	DD	083414H
	DD	070025206H
	DD	imagerel __CxxFrameHandler3
	DD	imagerel $cppxdata$?_Run@?$_LaunchPad@V?$unique_ptr@V?$tuple@P6AXPEAURayTraceTreadConfig@@H@ZPEAU1@H@std@@U?$default_delete@V?$tuple@P6AXPEAURayTraceTreadConfig@@H@ZPEAU1@H@std@@@2@@std@@@std@@CAXPEAV12@@Z
xdata	ENDS
;	COMDAT xdata
xdata	SEGMENT
$ip2state$??$?0V?$unique_ptr@V?$tuple@P6AXPEAURayTraceTreadConfig@@H@ZPEAU1@H@std@@U?$default_delete@V?$tuple@P6AXPEAURayTraceTreadConfig@@H@ZPEAU1@H@std@@@2@@std@@@?$_LaunchPad@V?$unique_ptr@V?$tuple@P6AXPEAURayTraceTreadConfig@@H@ZPEAU1@H@std@@U?$default_delete@V?$tuple@P6AXPEAURayTraceTreadConfig@@H@ZPEAU1@H@std@@@2@@std@@@std@@QEAA@$$QEAV?$unique_ptr@V?$tuple@P6AXPEAURayTraceTreadConfig@@H@ZPEAU1@H@std@@U?$default_delete@V?$tuple@P6AXPEAURayTraceTreadConfig@@H@ZPEAU1@H@std@@@2@@1@@Z DD imagerel ??$?0V?$unique_ptr@V?$tuple@P6AXPEAURayTraceTreadConfig@@H@ZPEAU1@H@std@@U?$default_delete@V?$tuple@P6AXPEAURayTraceTreadConfig@@H@ZPEAU1@H@std@@@2@@std@@@?$_LaunchPad@V?$unique_ptr@V?$tuple@P6AXPEAURayTraceTreadConfig@@H@ZPEAU1@H@std@@U?$default_delete@V?$tuple@P6AXPEAURayTraceTreadConfig@@H@ZPEAU1@H@std@@@2@@std@@@std@@QEAA@$$QEAV?$unique_ptr@V?$tuple@P6AXPEAURayTraceTreadConfig@@H@ZPEAU1@H@std@@U?$default_delete@V?$tuple@P6AXPEAURayTraceTreadConfig@@H@ZPEAU1@H@std@@@2@@1@@Z+47
	DD	0ffffffffH
	DD	imagerel ??$?0V?$unique_ptr@V?$tuple@P6AXPEAURayTraceTreadConfig@@H@ZPEAU1@H@std@@U?$default_delete@V?$tuple@P6AXPEAURayTraceTreadConfig@@H@ZPEAU1@H@std@@@2@@std@@@?$_LaunchPad@V?$unique_ptr@V?$tuple@P6AXPEAURayTraceTreadConfig@@H@ZPEAU1@H@std@@U?$default_delete@V?$tuple@P6AXPEAURayTraceTreadConfig@@H@ZPEAU1@H@std@@@2@@std@@@std@@QEAA@$$QEAV?$unique_ptr@V?$tuple@P6AXPEAURayTraceTreadConfig@@H@ZPEAU1@H@std@@U?$default_delete@V?$tuple@P6AXPEAURayTraceTreadConfig@@H@ZPEAU1@H@std@@@2@@1@@Z+88
	DD	00H
	DD	imagerel ??$?0V?$unique_ptr@V?$tuple@P6AXPEAURayTraceTreadConfig@@H@ZPEAU1@H@std@@U?$default_delete@V?$tuple@P6AXPEAURayTraceTreadConfig@@H@ZPEAU1@H@std@@@2@@std@@@?$_LaunchPad@V?$unique_ptr@V?$tuple@P6AXPEAURayTraceTreadConfig@@H@ZPEAU1@H@std@@U?$default_delete@V?$tuple@P6AXPEAURayTraceTreadConfig@@H@ZPEAU1@H@std@@@2@@std@@@std@@QEAA@$$QEAV?$unique_ptr@V?$tuple@P6AXPEAURayTraceTreadConfig@@H@ZPEAU1@H@std@@U?$default_delete@V?$tuple@P6AXPEAURayTraceTreadConfig@@H@ZPEAU1@H@std@@@2@@1@@Z+124
	DD	01H
xdata	ENDS
;	COMDAT xdata
xdata	SEGMENT
$stateUnwindMap$??$?0V?$unique_ptr@V?$tuple@P6AXPEAURayTraceTreadConfig@@H@ZPEAU1@H@std@@U?$default_delete@V?$tuple@P6AXPEAURayTraceTreadConfig@@H@ZPEAU1@H@std@@@2@@std@@@?$_LaunchPad@V?$unique_ptr@V?$tuple@P6AXPEAURayTraceTreadConfig@@H@ZPEAU1@H@std@@U?$default_delete@V?$tuple@P6AXPEAURayTraceTreadConfig@@H@ZPEAU1@H@std@@@2@@std@@@std@@QEAA@$$QEAV?$unique_ptr@V?$tuple@P6AXPEAURayTraceTreadConfig@@H@ZPEAU1@H@std@@U?$default_delete@V?$tuple@P6AXPEAURayTraceTreadConfig@@H@ZPEAU1@H@std@@@2@@1@@Z DD 0ffffffffH
	DD	imagerel ?dtor$2@?0???$?0V?$unique_ptr@V?$tuple@P6AXPEAURayTraceTreadConfig@@H@ZPEAU1@H@std@@U?$default_delete@V?$tuple@P6AXPEAURayTraceTreadConfig@@H@ZPEAU1@H@std@@@2@@std@@@?$_LaunchPad@V?$unique_ptr@V?$tuple@P6AXPEAURayTraceTreadConfig@@H@ZPEAU1@H@std@@U?$default_delete@V?$tuple@P6AXPEAURayTraceTreadConfig@@H@ZPEAU1@H@std@@@2@@std@@@std@@QEAA@$$QEAV?$unique_ptr@V?$tuple@P6AXPEAURayTraceTreadConfig@@H@ZPEAU1@H@std@@U?$default_delete@V?$tuple@P6AXPEAURayTraceTreadConfig@@H@ZPEAU1@H@std@@@2@@1@@Z@4HA
	DD	00H
	DD	imagerel ?dtor$3@?0???$?0V?$unique_ptr@V?$tuple@P6AXPEAURayTraceTreadConfig@@H@ZPEAU1@H@std@@U?$default_delete@V?$tuple@P6AXPEAURayTraceTreadConfig@@H@ZPEAU1@H@std@@@2@@std@@@?$_LaunchPad@V?$unique_ptr@V?$tuple@P6AXPEAURayTraceTreadConfig@@H@ZPEAU1@H@std@@U?$default_delete@V?$tuple@P6AXPEAURayTraceTreadConfig@@H@ZPEAU1@H@std@@@2@@std@@@std@@QEAA@$$QEAV?$unique_ptr@V?$tuple@P6AXPEAURayTraceTreadConfig@@H@ZPEAU1@H@std@@U?$default_delete@V?$tuple@P6AXPEAURayTraceTreadConfig@@H@ZPEAU1@H@std@@@2@@1@@Z@4HA
xdata	ENDS
;	COMDAT CONST
CONST	SEGMENT
$cppxdata$??$?0V?$unique_ptr@V?$tuple@P6AXPEAURayTraceTreadConfig@@H@ZPEAU1@H@std@@U?$default_delete@V?$tuple@P6AXPEAURayTraceTreadConfig@@H@ZPEAU1@H@std@@@2@@std@@@?$_LaunchPad@V?$unique_ptr@V?$tuple@P6AXPEAURayTraceTreadConfig@@H@ZPEAU1@H@std@@U?$default_delete@V?$tuple@P6AXPEAURayTraceTreadConfig@@H@ZPEAU1@H@std@@@2@@std@@@std@@QEAA@$$QEAV?$unique_ptr@V?$tuple@P6AXPEAURayTraceTreadConfig@@H@ZPEAU1@H@std@@U?$default_delete@V?$tuple@P6AXPEAURayTraceTreadConfig@@H@ZPEAU1@H@std@@@2@@1@@Z DQ 00000000219930522r ; 4.45598e-314
	DD	imagerel $stateUnwindMap$??$?0V?$unique_ptr@V?$tuple@P6AXPEAURayTraceTreadConfig@@H@ZPEAU1@H@std@@U?$default_delete@V?$tuple@P6AXPEAURayTraceTreadConfig@@H@ZPEAU1@H@std@@@2@@std@@@?$_LaunchPad@V?$unique_ptr@V?$tuple@P6AXPEAURayTraceTreadConfig@@H@ZPEAU1@H@std@@U?$default_delete@V?$tuple@P6AXPEAURayTraceTreadConfig@@H@ZPEAU1@H@std@@@2@@std@@@std@@QEAA@$$QEAV?$unique_ptr@V?$tuple@P6AXPEAURayTraceTreadConfig@@H@ZPEAU1@H@std@@U?$default_delete@V?$tuple@P6AXPEAURayTraceTreadConfig@@H@ZPEAU1@H@std@@@2@@1@@Z
	DQ	00000000000000000r		; 0
	DD	03H
	DD	imagerel $ip2state$??$?0V?$unique_ptr@V?$tuple@P6AXPEAURayTraceTreadConfig@@H@ZPEAU1@H@std@@U?$default_delete@V?$tuple@P6AXPEAURayTraceTreadConfig@@H@ZPEAU1@H@std@@@2@@std@@@?$_LaunchPad@V?$unique_ptr@V?$tuple@P6AXPEAURayTraceTreadConfig@@H@ZPEAU1@H@std@@U?$default_delete@V?$tuple@P6AXPEAURayTraceTreadConfig@@H@ZPEAU1@H@std@@@2@@std@@@std@@QEAA@$$QEAV?$unique_ptr@V?$tuple@P6AXPEAURayTraceTreadConfig@@H@ZPEAU1@H@std@@U?$default_delete@V?$tuple@P6AXPEAURayTraceTreadConfig@@H@ZPEAU1@H@std@@@2@@1@@Z
	DQ	00000000000000020r		; 1.58101e-322
	DD	01H
CONST	ENDS
;	COMDAT xdata
xdata	SEGMENT
$unwind$??$?0V?$unique_ptr@V?$tuple@P6AXPEAURayTraceTreadConfig@@H@ZPEAU1@H@std@@U?$default_delete@V?$tuple@P6AXPEAURayTraceTreadConfig@@H@ZPEAU1@H@std@@@2@@std@@@?$_LaunchPad@V?$unique_ptr@V?$tuple@P6AXPEAURayTraceTreadConfig@@H@ZPEAU1@H@std@@U?$default_delete@V?$tuple@P6AXPEAURayTraceTreadConfig@@H@ZPEAU1@H@std@@@2@@std@@@std@@QEAA@$$QEAV?$unique_ptr@V?$tuple@P6AXPEAURayTraceTreadConfig@@H@ZPEAU1@H@std@@U?$default_delete@V?$tuple@P6AXPEAURayTraceTreadConfig@@H@ZPEAU1@H@std@@@2@@1@@Z DD 061911H
	DD	0d6419H
	DD	0c3414H
	DD	070029206H
	DD	imagerel __CxxFrameHandler3
	DD	imagerel $cppxdata$??$?0V?$unique_ptr@V?$tuple@P6AXPEAURayTraceTreadConfig@@H@ZPEAU1@H@std@@U?$default_delete@V?$tuple@P6AXPEAURayTraceTreadConfig@@H@ZPEAU1@H@std@@@2@@std@@@?$_LaunchPad@V?$unique_ptr@V?$tuple@P6AXPEAURayTraceTreadConfig@@H@ZPEAU1@H@std@@U?$default_delete@V?$tuple@P6AXPEAURayTraceTreadConfig@@H@ZPEAU1@H@std@@@2@@std@@@std@@QEAA@$$QEAV?$unique_ptr@V?$tuple@P6AXPEAURayTraceTreadConfig@@H@ZPEAU1@H@std@@U?$default_delete@V?$tuple@P6AXPEAURayTraceTreadConfig@@H@ZPEAU1@H@std@@@2@@1@@Z
xdata	ENDS
;	COMDAT xdata
xdata	SEGMENT
$unwind$??$destroy@Vthread@std@@@?$_Default_allocator_traits@V?$allocator@Vthread@std@@@std@@@std@@SAXAEAV?$allocator@Vthread@std@@@1@QEAVthread@1@@Z DD 010401H
	DD	04204H
xdata	ENDS
;	COMDAT xdata
xdata	SEGMENT
$unwind$??_Gthread@std@@QEAAPEAXI@Z DD 010401H
	DD	04204H
xdata	ENDS
;	COMDAT xdata
xdata	SEGMENT
$unwind$??1?$_Uninitialized_backout_al@PEAVthread@std@@V?$allocator@Vthread@std@@@2@@std@@QEAA@XZ DD 010401H
	DD	04204H
xdata	ENDS
; Function compile flags: /Ogtpy
; File c:\users\blockchainvirus\dropbox\code\cudatetris\cudatetris\raytracing.cpp
; File c:\program files (x86)\windows kits\10\include\10.0.17134.0\ucrt\time.h
; File c:\users\blockchainvirus\dropbox\code\cudatetris\cudatetris\raytracing.cpp
; File c:\program files (x86)\microsoft visual studio\2017\community\vc\tools\msvc\14.15.26726\include\thread
; File c:\users\blockchainvirus\dropbox\code\cudatetris\cudatetris\raytracing.cpp
; File c:\program files (x86)\microsoft visual studio\2017\community\vc\tools\msvc\14.15.26726\include\vector
; File c:\users\blockchainvirus\dropbox\code\cudatetris\cudatetris\raytracing.cpp
; File c:\program files (x86)\microsoft visual studio\2017\community\vc\tools\msvc\14.15.26726\include\vector
; File c:\users\blockchainvirus\dropbox\code\cudatetris\cudatetris\raytracing.cpp
; File c:\program files (x86)\microsoft visual studio\2017\community\vc\tools\msvc\14.15.26726\include\memory
; File c:\program files (x86)\microsoft visual studio\2017\community\vc\tools\msvc\14.15.26726\include\tuple
; File c:\program files (x86)\microsoft visual studio\2017\community\vc\tools\msvc\14.15.26726\include\xutility
; File c:\program files (x86)\microsoft visual studio\2017\community\vc\tools\msvc\14.15.26726\include\thr\xthread
; File c:\program files (x86)\microsoft visual studio\2017\community\vc\tools\msvc\14.15.26726\include\memory
; File c:\program files (x86)\microsoft visual studio\2017\community\vc\tools\msvc\14.15.26726\include\xutility
; File c:\program files (x86)\microsoft visual studio\2017\community\vc\tools\msvc\14.15.26726\include\thr\xthread
; File c:\program files (x86)\microsoft visual studio\2017\community\vc\tools\msvc\14.15.26726\include\memory
; File c:\program files (x86)\microsoft visual studio\2017\community\vc\tools\msvc\14.15.26726\include\thr\xthread
; File c:\program files (x86)\microsoft visual studio\2017\community\vc\tools\msvc\14.15.26726\include\vector
; File c:\program files (x86)\microsoft visual studio\2017\community\vc\tools\msvc\14.15.26726\include\thread
; File c:\program files (x86)\microsoft visual studio\2017\community\vc\tools\msvc\14.15.26726\include\vector
; File c:\program files (x86)\microsoft visual studio\2017\community\vc\tools\msvc\14.15.26726\include\thread
; File c:\users\blockchainvirus\dropbox\code\cudatetris\cudatetris\raytracing.cpp
; File c:\program files (x86)\microsoft visual studio\2017\community\vc\tools\msvc\14.15.26726\include\vector
; File c:\users\blockchainvirus\dropbox\code\cudatetris\cudatetris\raytracing.cpp
; File c:\program files (x86)\microsoft visual studio\2017\community\vc\tools\msvc\14.15.26726\include\vector
; File c:\program files (x86)\microsoft visual studio\2017\community\vc\tools\msvc\14.15.26726\include\thread
; File c:\users\blockchainvirus\dropbox\code\cudatetris\cudatetris\raytracing.cpp
; File c:\program files (x86)\microsoft visual studio\2017\community\vc\tools\msvc\14.15.26726\include\vector
; File c:\program files (x86)\microsoft visual studio\2017\community\vc\tools\msvc\14.15.26726\include\xmemory0
; File c:\program files (x86)\microsoft visual studio\2017\community\vc\tools\msvc\14.15.26726\include\thread
; File c:\program files (x86)\microsoft visual studio\2017\community\vc\tools\msvc\14.15.26726\include\xmemory0
; File c:\program files (x86)\microsoft visual studio\2017\community\vc\tools\msvc\14.15.26726\include\vector
; File c:\program files (x86)\microsoft visual studio\2017\community\vc\tools\msvc\14.15.26726\include\xmemory0
; File c:\program files (x86)\microsoft visual studio\2017\community\vc\tools\msvc\14.15.26726\include\thread
; File c:\program files (x86)\microsoft visual studio\2017\community\vc\tools\msvc\14.15.26726\include\xmemory0
; File c:\users\blockchainvirus\dropbox\code\cudatetris\cudatetris\raytracing.cpp
; File c:\program files (x86)\microsoft visual studio\2017\community\vc\tools\msvc\14.15.26726\include\thread
; File c:\users\blockchainvirus\dropbox\code\cudatetris\cudatetris\raytracing.cpp
;	COMDAT ?ray_tracing_main@RaytraceEnviroment@@QEAAHPEAIHHH@Z
_TEXT	SEGMENT
rayTraceThreadConfig$1$ = 32
$T43 = 40
_Launcher$154 = 56
threads$ = 96
$T114 = 128
_Cnd_cleaner$155 = 128
$T28 = 144
_Mtx_cleaner$156 = 152
$T157 = 168
this$ = 224
back_buffer$ = 232
width$ = 240
height$ = 248
count$dead$ = 256
?ray_tracing_main@RaytraceEnviroment@@QEAAHPEAIHHH@Z PROC ; RaytraceEnviroment::ray_tracing_main, COMDAT

$LN531:
  00000	48 8b c4	 mov	 rax, rsp
  00003	55		 push	 rbp
  00004	41 54		 push	 r12
  00006	41 55		 push	 r13
  00008	41 56		 push	 r14
  0000a	41 57		 push	 r15
  0000c	48 8d 68 a9	 lea	 rbp, QWORD PTR [rax-87]
  00010	48 81 ec b0 00
	00 00		 sub	 rsp, 176		; 000000b0H
  00017	48 c7 45 27 fe
	ff ff ff	 mov	 QWORD PTR $T157[rbp-129], -2
  0001f	48 89 58 08	 mov	 QWORD PTR [rax+8], rbx
  00023	48 89 70 10	 mov	 QWORD PTR [rax+16], rsi
  00027	48 89 78 18	 mov	 QWORD PTR [rax+24], rdi
  0002b	49 63 f1	 movsxd	 rsi, r9d
  0002e	41 8b f8	 mov	 edi, r8d
  00031	4c 8b f2	 mov	 r14, rdx
  00034	48 8b d9	 mov	 rbx, rcx
; File c:\program files (x86)\windows kits\10\include\10.0.17134.0\ucrt\time.h

; 536  :             return _time64(_Time);

  00037	33 c9		 xor	 ecx, ecx
  00039	ff 15 00 00 00
	00		 call	 QWORD PTR __imp__time64
  0003f	48 8b c8	 mov	 rcx, rax
; File c:\users\blockchainvirus\dropbox\code\cudatetris\cudatetris\raytracing.cpp

  00042	ff 15 00 00 00
	00		 call	 QWORD PTR __imp_srand
; File c:\program files (x86)\microsoft visual studio\2017\community\vc\tools\msvc\14.15.26726\include\thread

; 97   : 		return (_Thrd_hardware_concurrency());

  00048	ff 15 00 00 00
	00		 call	 QWORD PTR __imp__Thrd_hardware_concurrency
; File c:\users\blockchainvirus\dropbox\code\cudatetris\cudatetris\raytracing.cpp

  0004e	4c 63 d7	 movsxd	 r10, edi
  00051	4c 0f af d6	 imul	 r10, rsi
  00055	4b 8d 0c 52	 lea	 rcx, QWORD PTR [r10+r10*2]
  00059	48 c1 e1 04	 shl	 rcx, 4
  0005d	ff 15 00 00 00
	00		 call	 QWORD PTR __imp_malloc
  00063	48 8b c8	 mov	 rcx, rax
  00066	48 89 45 9f	 mov	 QWORD PTR rayTraceThreadConfig$1$[rbp-129], rax

  0006a	45 33 c0	 xor	 r8d, r8d

  0006d	44 8d 4e ff	 lea	 r9d, DWORD PTR [rsi-1]
  00071	45 85 c9	 test	 r9d, r9d
  00074	78 6c		 js	 SHORT $LN3@ray_tracin
  00076	45 33 d2	 xor	 r10d, r10d
  00079	0f 1f 80 00 00
	00 00		 npad	 7
$LL4@ray_tracin:

  00080	33 d2		 xor	 edx, edx
  00082	85 ff		 test	 edi, edi
  00084	7e 56		 jle	 SHORT $LN2@ray_tracin
  00086	4b 8d 04 52	 lea	 rax, QWORD PTR [r10+r10*2]
  0008a	48 c1 e0 04	 shl	 rax, 4
  0008e	48 83 c0 08	 add	 rax, 8
  00092	48 03 c1	 add	 rax, rcx
  00095	4c 03 d7	 add	 r10, rdi
  00098	0f 1f 84 00 00
	00 00 00	 npad	 8
$LL7@ray_tracin:

  000a0	4c 89 70 08	 mov	 QWORD PTR [rax+8], r14

  000a4	48 8b 4b 10	 mov	 rcx, QWORD PTR [rbx+16]
  000a8	48 89 08	 mov	 QWORD PTR [rax], rcx

  000ab	48 8b 4b 08	 mov	 rcx, QWORD PTR [rbx+8]
  000af	48 89 48 f8	 mov	 QWORD PTR [rax-8], rcx

  000b3	89 78 10	 mov	 DWORD PTR [rax+16], edi

  000b6	89 70 14	 mov	 DWORD PTR [rax+20], esi

  000b9	c7 40 20 02 00
	00 00		 mov	 DWORD PTR [rax+32], 2

  000c0	89 50 18	 mov	 DWORD PTR [rax+24], edx

  000c3	44 89 48 1c	 mov	 DWORD PTR [rax+28], r9d

  000c7	44 89 40 24	 mov	 DWORD PTR [rax+36], r8d

  000cb	41 ff c0	 inc	 r8d
  000ce	48 8d 40 30	 lea	 rax, QWORD PTR [rax+48]

  000d2	ff c2		 inc	 edx
  000d4	3b d7		 cmp	 edx, edi
  000d6	7c c8		 jl	 SHORT $LL7@ray_tracin
  000d8	48 8b 4d 9f	 mov	 rcx, QWORD PTR rayTraceThreadConfig$1$[rbp-129]
$LN2@ray_tracin:

  000dc	41 83 e9 01	 sub	 r9d, 1
  000e0	79 9e		 jns	 SHORT $LL4@ray_tracin
$LN3@ray_tracin:
  000e2	0f 57 c0	 xorps	 xmm0, xmm0
; File c:\program files (x86)\microsoft visual studio\2017\community\vc\tools\msvc\14.15.26726\include\vector

; 389  : 		: _Myfirst(),

  000e5	f3 0f 7f 45 df	 movdqu	 XMMWORD PTR threads$[rbp-129], xmm0

; 390  : 		_Mylast(),
; 391  : 		_Myend()

  000ea	45 33 e4	 xor	 r12d, r12d
  000ed	4c 89 65 ef	 mov	 QWORD PTR threads$[rbp-113], r12
; File c:\users\blockchainvirus\dropbox\code\cudatetris\cudatetris\raytracing.cpp

  000f1	0f af fe	 imul	 edi, esi

  000f4	45 33 ff	 xor	 r15d, r15d
; File c:\program files (x86)\microsoft visual studio\2017\community\vc\tools\msvc\14.15.26726\include\vector

; 389  : 		: _Myfirst(),

  000f7	45 33 ed	 xor	 r13d, r13d
  000fa	48 8b 75 e7	 mov	 rsi, QWORD PTR threads$[rbp-121]
  000fe	66 90		 npad	 2
$LL10@ray_tracin:
; File c:\users\blockchainvirus\dropbox\code\cudatetris\cudatetris\raytracing.cpp

  00100	49 63 c5	 movsxd	 rax, r13d
  00103	48 8d 1c 40	 lea	 rbx, QWORD PTR [rax+rax*2]
  00107	48 c1 e3 04	 shl	 rbx, 4
  0010b	48 03 d9	 add	 rbx, rcx
; File c:\program files (x86)\microsoft visual studio\2017\community\vc\tools\msvc\14.15.26726\include\memory

; 2539 : 	return (unique_ptr<_Ty>(new _Ty(_STD forward<_Types>(_Args)...)));

  0010e	b9 18 00 00 00	 mov	 ecx, 24
  00113	e8 00 00 00 00	 call	 ??2@YAPEAX_K@Z		; operator new
  00118	4c 8b f0	 mov	 r14, rax
; File c:\program files (x86)\microsoft visual studio\2017\community\vc\tools\msvc\14.15.26726\include\tuple

; 236  : 		: _Val(_STD forward<_Other>(_Arg))

  0011b	89 38		 mov	 DWORD PTR [rax], edi
  0011d	48 89 58 08	 mov	 QWORD PTR [rax+8], rbx
  00121	48 8d 05 00 00
	00 00		 lea	 rax, OFFSET FLAT:?single_thread@@YAXPEAURayTraceTreadConfig@@H@Z ; single_thread
  00128	49 89 46 10	 mov	 QWORD PTR [r14+16], rax
; File c:\program files (x86)\microsoft visual studio\2017\community\vc\tools\msvc\14.15.26726\include\xutility

; 277  : 		: _Ty1(), _Myval2(_STD forward<_Other2>(_Val2)...)

  0012c	4c 89 75 0f	 mov	 QWORD PTR $T28[rbp-129], r14
; File c:\program files (x86)\microsoft visual studio\2017\community\vc\tools\msvc\14.15.26726\include\thr\xthread

; 92   : 	return (_Check_C_return(_Cnd_init(_Cnd)));

  00130	48 8d 4d bf	 lea	 rcx, QWORD PTR _Launcher$154[rbp-121]
  00134	ff 15 00 00 00
	00		 call	 QWORD PTR __imp__Cnd_init

; 36   : 	if (_Res != _Thrd_success)

  0013a	85 c0		 test	 eax, eax
  0013c	74 08		 je	 SHORT $LN116@ray_tracin

; 37   : 		_Throw_C_error(_Res);

  0013e	8b c8		 mov	 ecx, eax
  00140	ff 15 00 00 00
	00		 call	 QWORD PTR __imp_?_Throw_C_error@std@@YAXH@Z
$LN116@ray_tracin:

; 120  : 		: _Active(true), _MyCndp(_Cndp)

  00146	c6 45 ff 01	 mov	 BYTE PTR _Cnd_cleaner$155[rbp-129], 1
  0014a	48 8b 45 bf	 mov	 rax, QWORD PTR _Launcher$154[rbp-121]
  0014e	48 89 45 07	 mov	 QWORD PTR _Cnd_cleaner$155[rbp-121], rax

; 67   : 	return (_Check_C_return(_Mtx_init(_Mtx, _Type)));

  00152	ba 01 00 00 00	 mov	 edx, 1
  00157	48 8d 4d c7	 lea	 rcx, QWORD PTR _Launcher$154[rbp-113]
  0015b	ff 15 00 00 00
	00		 call	 QWORD PTR __imp__Mtx_init

; 36   : 	if (_Res != _Thrd_success)

  00161	85 c0		 test	 eax, eax
  00163	74 08		 je	 SHORT $LN123@ray_tracin

; 37   : 		_Throw_C_error(_Res);

  00165	8b c8		 mov	 ecx, eax
  00167	ff 15 00 00 00
	00		 call	 QWORD PTR __imp_?_Throw_C_error@std@@YAXH@Z
$LN123@ray_tracin:

; 144  : 		: _Active(true), _MyMtxp(_Mtxp)

  0016d	c6 45 17 01	 mov	 BYTE PTR _Mtx_cleaner$156[rbp-129], 1
  00171	48 8b 4d c7	 mov	 rcx, QWORD PTR _Launcher$154[rbp-113]
  00175	48 89 4d 1f	 mov	 QWORD PTR _Mtx_cleaner$156[rbp-121], rcx

; 175  : 		_Started = false;

  00179	c6 45 cf 00	 mov	 BYTE PTR _Launcher$154[rbp-105], 0

; 72   : 	return (_Check_C_return(_Mtx_lock(_Mtx)));

  0017d	ff 15 00 00 00
	00		 call	 QWORD PTR __imp__Mtx_lock

; 36   : 	if (_Res != _Thrd_success)

  00183	85 c0		 test	 eax, eax
  00185	74 08		 je	 SHORT $LN130@ray_tracin

; 37   : 		_Throw_C_error(_Res);

  00187	8b c8		 mov	 ecx, eax
  00189	ff 15 00 00 00
	00		 call	 QWORD PTR __imp_?_Throw_C_error@std@@YAXH@Z
$LN130@ray_tracin:

; 156  : 		_Active = false;

  0018f	c6 45 17 00	 mov	 BYTE PTR _Mtx_cleaner$156[rbp-129], 0

; 132  : 		_Active = false;

  00193	c6 45 ff 00	 mov	 BYTE PTR _Cnd_cleaner$155[rbp-129], 0

; 225  : 		{	// construct from target

  00197	48 8d 05 00 00
	00 00		 lea	 rax, OFFSET FLAT:??_7?$_LaunchPad@V?$unique_ptr@V?$tuple@P6AXPEAURayTraceTreadConfig@@H@ZPEAU1@H@std@@U?$default_delete@V?$tuple@P6AXPEAURayTraceTreadConfig@@H@ZPEAU1@H@std@@@2@@std@@@std@@6B@
  0019e	48 89 45 b7	 mov	 QWORD PTR _Launcher$154[rbp-129], rax
; File c:\program files (x86)\microsoft visual studio\2017\community\vc\tools\msvc\14.15.26726\include\memory

; 2323 : 		this->_Myptr() = pointer();

  001a2	48 c7 45 0f 00
	00 00 00	 mov	 QWORD PTR $T28[rbp-129], 0
; File c:\program files (x86)\microsoft visual studio\2017\community\vc\tools\msvc\14.15.26726\include\xutility

; 286  : 			_Myval2(_STD forward<_Other2>(_Val2)...)

  001aa	4c 89 75 d7	 mov	 QWORD PTR _Launcher$154[rbp-97], r14
; File c:\program files (x86)\microsoft visual studio\2017\community\vc\tools\msvc\14.15.26726\include\thr\xthread

; 51   : 	const int _Res = _Thrd_start(_Thr, _Fp, _Arg);

  001ae	4c 8d 45 b7	 lea	 r8, QWORD PTR _Launcher$154[rbp-129]
  001b2	48 8d 15 00 00
	00 00		 lea	 rdx, OFFSET FLAT:?_Call_func@_Pad@std@@CAIPEAX@Z ; std::_Pad::_Call_func
  001b9	48 8d 4d a7	 lea	 rcx, QWORD PTR $T43[rbp-129]
  001bd	ff 15 00 00 00
	00		 call	 QWORD PTR __imp__Thrd_start

; 52   : 	return (_Check_C_return(_Res != _Thrd_error ? _Res : _Thrd_nomem));

  001c3	b9 01 00 00 00	 mov	 ecx, 1
  001c8	83 f8 04	 cmp	 eax, 4
  001cb	0f 45 c8	 cmovne	 ecx, eax

; 36   : 	if (_Res != _Thrd_success)

  001ce	85 c9		 test	 ecx, ecx
  001d0	74 06		 je	 SHORT $LN503@ray_tracin

; 37   : 		_Throw_C_error(_Res);

  001d2	ff 15 00 00 00
	00		 call	 QWORD PTR __imp_?_Throw_C_error@std@@YAXH@Z
$LN503@ray_tracin:

; 191  : 		while (!_Started)

  001d8	80 7d cf 00	 cmp	 BYTE PTR _Launcher$154[rbp-105], 0
  001dc	75 22		 jne	 SHORT $LN176@ray_tracin
  001de	66 90		 npad	 2
$LL175@ray_tracin:

; 97   : 	return (_Check_C_return(_Cnd_wait(_Cnd, _Mtx)));

  001e0	48 8b 55 c7	 mov	 rdx, QWORD PTR _Launcher$154[rbp-113]
  001e4	48 8b 4d bf	 mov	 rcx, QWORD PTR _Launcher$154[rbp-121]
  001e8	ff 15 00 00 00
	00		 call	 QWORD PTR __imp__Cnd_wait

; 36   : 	if (_Res != _Thrd_success)

  001ee	85 c0		 test	 eax, eax
  001f0	74 08		 je	 SHORT $LN186@ray_tracin

; 37   : 		_Throw_C_error(_Res);

  001f2	8b c8		 mov	 ecx, eax
  001f4	ff 15 00 00 00
	00		 call	 QWORD PTR __imp_?_Throw_C_error@std@@YAXH@Z
$LN186@ray_tracin:

; 191  : 		while (!_Started)

  001fa	80 7d cf 00	 cmp	 BYTE PTR _Launcher$154[rbp-105], 0
  001fe	74 e0		 je	 SHORT $LL175@ray_tracin
$LN176@ray_tracin:
; File c:\program files (x86)\microsoft visual studio\2017\community\vc\tools\msvc\14.15.26726\include\memory

; 2294 : 		if (get() != pointer())

  00200	48 8b 4d d7	 mov	 rcx, QWORD PTR _Launcher$154[rbp-97]
  00204	48 85 c9	 test	 rcx, rcx
  00207	74 0b		 je	 SHORT $LN211@ray_tracin

; 2084 : 		delete _Ptr;

  00209	ba 18 00 00 00	 mov	 edx, 24
  0020e	e8 00 00 00 00	 call	 ??3@YAXPEAX_K@Z		; operator delete
  00213	90		 npad	 1
$LN211@ray_tracin:
; File c:\program files (x86)\microsoft visual studio\2017\community\vc\tools\msvc\14.15.26726\include\thr\xthread

; 120  : 		: _Active(true), _MyCndp(_Cndp)

  00214	4c 8b 75 bf	 mov	 r14, QWORD PTR _Launcher$154[rbp-121]

; 144  : 		: _Active(true), _MyMtxp(_Mtxp)

  00218	48 8b 5d c7	 mov	 rbx, QWORD PTR _Launcher$154[rbp-113]

; 87   : 	return (_Check_C_return(_Mtx_unlock(_Mtx)));

  0021c	48 8b cb	 mov	 rcx, rbx
  0021f	ff 15 00 00 00
	00		 call	 QWORD PTR __imp__Mtx_unlock

; 36   : 	if (_Res != _Thrd_success)

  00225	85 c0		 test	 eax, eax
  00227	74 08		 je	 SHORT $LN525@ray_tracin

; 37   : 		_Throw_C_error(_Res);

  00229	8b c8		 mov	 ecx, eax
  0022b	ff 15 00 00 00
	00		 call	 QWORD PTR __imp_?_Throw_C_error@std@@YAXH@Z
$LN525@ray_tracin:

; 151  : 			_Mtx_destroy(_MyMtxp);

  00231	48 8b cb	 mov	 rcx, rbx
  00234	ff 15 00 00 00
	00		 call	 QWORD PTR __imp__Mtx_destroy

; 127  : 			_Cnd_destroy(_MyCndp);

  0023a	49 8b ce	 mov	 rcx, r14
  0023d	ff 15 00 00 00
	00		 call	 QWORD PTR __imp__Cnd_destroy
  00243	90		 npad	 1
; File c:\program files (x86)\microsoft visual studio\2017\community\vc\tools\msvc\14.15.26726\include\vector

; 917  : 		if (_Has_unused_capacity())

  00244	4c 3b e6	 cmp	 r12, rsi
  00247	74 1e		 je	 SHORT $LN256@ray_tracin
; File c:\program files (x86)\microsoft visual studio\2017\community\vc\tools\msvc\14.15.26726\include\thread

; 60   : 		: _Thr(_Other._Thr)

  00249	0f 10 45 a7	 movups	 xmm0, XMMWORD PTR $T43[rbp-129]
  0024d	0f 11 06	 movups	 XMMWORD PTR [rsi], xmm0

; 61   : 		{	// move from _Other
; 62   : 		_Thr_set_null(_Other._Thr);

  00250	48 c7 45 a7 00
	00 00 00	 mov	 QWORD PTR $T43[rbp-129], 0
  00258	33 c0		 xor	 eax, eax
  0025a	89 45 af	 mov	 DWORD PTR $T43[rbp-121], eax
; File c:\program files (x86)\microsoft visual studio\2017\community\vc\tools\msvc\14.15.26726\include\vector

; 905  : 		++this->_Mylast();

  0025d	48 83 c6 10	 add	 rsi, 16
  00261	48 89 75 e7	 mov	 QWORD PTR threads$[rbp-121], rsi

; 919  : 			return (_Emplace_back_with_unused_capacity(_STD forward<_Valty>(_Val)...));

  00265	eb 1b		 jmp	 SHORT $LN255@ray_tracin
$LN256@ray_tracin:

; 920  : 			}
; 921  : 
; 922  : 		_Ty& _Result = *_Emplace_reallocate(this->_Mylast(), _STD forward<_Valty>(_Val)...);

  00267	4c 8d 45 a7	 lea	 r8, QWORD PTR $T43[rbp-129]
  0026b	48 8b d6	 mov	 rdx, rsi
  0026e	48 8d 4d df	 lea	 rcx, QWORD PTR threads$[rbp-129]
  00272	e8 00 00 00 00	 call	 ??$_Emplace_reallocate@Vthread@std@@@?$vector@Vthread@std@@V?$allocator@Vthread@std@@@2@@std@@QEAAPEAVthread@1@QEAV21@$$QEAV21@@Z ; std::vector<std::thread,std::allocator<std::thread> >::_Emplace_reallocate<std::thread>
  00277	4c 8b 65 ef	 mov	 r12, QWORD PTR threads$[rbp-113]
  0027b	48 8b 75 e7	 mov	 rsi, QWORD PTR threads$[rbp-121]
  0027f	8b 45 af	 mov	 eax, DWORD PTR $T43[rbp-121]
$LN255@ray_tracin:
; File c:\program files (x86)\microsoft visual studio\2017\community\vc\tools\msvc\14.15.26726\include\thread

; 55   : 		if (joinable())

  00282	85 c0		 test	 eax, eax
  00284	0f 85 29 01 00
	00		 jne	 $LN506@ray_tracin
; File c:\users\blockchainvirus\dropbox\code\cudatetris\cudatetris\raytracing.cpp

  0028a	41 ff c7	 inc	 r15d
  0028d	44 03 ef	 add	 r13d, edi
  00290	41 83 ff 01	 cmp	 r15d, 1
  00294	48 8b 4d 9f	 mov	 rcx, QWORD PTR rayTraceThreadConfig$1$[rbp-129]
  00298	0f 8c 62 fe ff
	ff		 jl	 $LL10@ray_tracin

  0029e	45 33 f6	 xor	 r14d, r14d
; File c:\program files (x86)\microsoft visual studio\2017\community\vc\tools\msvc\14.15.26726\include\vector

; 1704 : 		return (static_cast<size_type>(this->_Mylast() - this->_Myfirst()));

  002a1	4c 8b fe	 mov	 r15, rsi
  002a4	48 8b 7d df	 mov	 rdi, QWORD PTR threads$[rbp-129]
  002a8	4c 2b ff	 sub	 r15, rdi
  002ab	49 c1 ff 04	 sar	 r15, 4
; File c:\users\blockchainvirus\dropbox\code\cudatetris\cudatetris\raytracing.cpp

  002af	4d 85 ff	 test	 r15, r15
  002b2	74 71		 je	 SHORT $LN12@ray_tracin
; File c:\program files (x86)\microsoft visual studio\2017\community\vc\tools\msvc\14.15.26726\include\vector

; 1736 : 		return (this->_Myfirst()[_Pos]);

  002b4	48 8d 5f 08	 lea	 rbx, QWORD PTR [rdi+8]
$LL13@ray_tracin:
; File c:\program files (x86)\microsoft visual studio\2017\community\vc\tools\msvc\14.15.26726\include\thread

; 80   : 		return (!_Thr_is_null(_Thr));

  002b8	8b 03		 mov	 eax, DWORD PTR [rbx]

; 181  : 	if (!joinable())

  002ba	85 c0		 test	 eax, eax
  002bc	75 18		 jne	 SHORT $LN362@ray_tracin

; 182  : 		_Throw_Cpp_error(_INVALID_ARGUMENT);

  002be	8d 48 01	 lea	 ecx, QWORD PTR [rax+1]
  002c1	ff 15 00 00 00
	00		 call	 QWORD PTR __imp_?_Throw_Cpp_error@std@@YAXH@Z
  002c7	8b 03		 mov	 eax, DWORD PTR [rbx]

; 183  : 	const bool _Is_null = _Thr_is_null(_Thr);	// Avoid Clang -Wparentheses-equality
; 184  : 	if (_Is_null)

  002c9	85 c0		 test	 eax, eax
  002cb	75 09		 jne	 SHORT $LN362@ray_tracin

; 185  : 		_Throw_Cpp_error(_INVALID_ARGUMENT);

  002cd	8d 48 01	 lea	 ecx, QWORD PTR [rax+1]
  002d0	ff 15 00 00 00
	00		 call	 QWORD PTR __imp_?_Throw_Cpp_error@std@@YAXH@Z
$LN362@ray_tracin:

; 200  : 	return (_Thrd_id());

  002d6	ff 15 00 00 00
	00		 call	 QWORD PTR __imp__Thrd_id

; 186  : 	if (get_id() == _STD this_thread::get_id())

  002dc	39 03		 cmp	 DWORD PTR [rbx], eax
  002de	75 0b		 jne	 SHORT $LN363@ray_tracin

; 187  : 		_Throw_Cpp_error(_RESOURCE_DEADLOCK_WOULD_OCCUR);

  002e0	b9 05 00 00 00	 mov	 ecx, 5
  002e5	ff 15 00 00 00
	00		 call	 QWORD PTR __imp_?_Throw_Cpp_error@std@@YAXH@Z
$LN363@ray_tracin:

; 188  : 	if (_Thrd_join(_Thr, nullptr) != _Thrd_success)

  002eb	0f 10 43 f8	 movups	 xmm0, XMMWORD PTR [rbx-8]
  002ef	0f 29 45 ff	 movaps	 XMMWORD PTR $T114[rbp-129], xmm0
  002f3	33 d2		 xor	 edx, edx
  002f5	48 8d 4d ff	 lea	 rcx, QWORD PTR $T114[rbp-129]
  002f9	ff 15 00 00 00
	00		 call	 QWORD PTR __imp__Thrd_join
  002ff	85 c0		 test	 eax, eax
  00301	74 0b		 je	 SHORT $LN364@ray_tracin

; 189  : 		_Throw_Cpp_error(_NO_SUCH_PROCESS);

  00303	b9 02 00 00 00	 mov	 ecx, 2
  00308	ff 15 00 00 00
	00		 call	 QWORD PTR __imp_?_Throw_Cpp_error@std@@YAXH@Z
$LN364@ray_tracin:

; 190  : 	_Thr_set_null(_Thr);

  0030e	33 c0		 xor	 eax, eax
  00310	48 89 43 f8	 mov	 QWORD PTR [rbx-8], rax
  00314	89 03		 mov	 DWORD PTR [rbx], eax
; File c:\users\blockchainvirus\dropbox\code\cudatetris\cudatetris\raytracing.cpp

  00316	41 ff c6	 inc	 r14d
  00319	48 83 c3 10	 add	 rbx, 16
  0031d	49 63 c6	 movsxd	 rax, r14d
  00320	49 3b c7	 cmp	 rax, r15
  00323	72 93		 jb	 SHORT $LL13@ray_tracin
$LN12@ray_tracin:

  00325	48 8b 4d 9f	 mov	 rcx, QWORD PTR rayTraceThreadConfig$1$[rbp-129]
  00329	ff 15 00 00 00
	00		 call	 QWORD PTR __imp_free
  0032f	90		 npad	 1
; File c:\program files (x86)\microsoft visual studio\2017\community\vc\tools\msvc\14.15.26726\include\vector

; 1913 : 		if (this->_Myfirst() != pointer())

  00330	48 85 ff	 test	 rdi, rdi
  00333	74 5b		 je	 SHORT $LN381@ray_tracin
; File c:\program files (x86)\microsoft visual studio\2017\community\vc\tools\msvc\14.15.26726\include\xmemory0

; 1158 : 	_Destroy_range1(_First, _Last, _Al, bool_constant<conjunction_v<

  00335	48 8b c7	 mov	 rax, rdi
  00338	48 3b fe	 cmp	 rdi, rsi

; 1134 : 	for (; _First != _Last; ++_First)

  0033b	74 12		 je	 SHORT $LN419@ray_tracin
  0033d	0f 1f 00	 npad	 3
$LL420@ray_tracin:
; File c:\program files (x86)\microsoft visual studio\2017\community\vc\tools\msvc\14.15.26726\include\thread

; 80   : 		return (!_Thr_is_null(_Thr));

  00340	83 78 08 00	 cmp	 DWORD PTR [rax+8], 0

; 55   : 		if (joinable())

  00344	75 38		 jne	 SHORT $LN507@ray_tracin
; File c:\program files (x86)\microsoft visual studio\2017\community\vc\tools\msvc\14.15.26726\include\xmemory0

; 1134 : 	for (; _First != _Last; ++_First)

  00346	48 83 c0 10	 add	 rax, 16
  0034a	48 3b c6	 cmp	 rax, rsi
  0034d	75 f1		 jne	 SHORT $LL420@ray_tracin
$LN419@ray_tracin:
; File c:\program files (x86)\microsoft visual studio\2017\community\vc\tools\msvc\14.15.26726\include\vector

; 1715 : 		return (static_cast<size_type>(this->_Myend() - this->_Myfirst()));

  0034f	4c 2b e7	 sub	 r12, rdi
; File c:\program files (x86)\microsoft visual studio\2017\community\vc\tools\msvc\14.15.26726\include\xmemory0

; 992  : 		_Deallocate<_New_alignof<_Ty>>(_Ptr, sizeof(_Ty) * _Count);

  00352	49 83 e4 f0	 and	 r12, -16
  00356	48 8b c7	 mov	 rax, rdi

; 201  : 	if (_Bytes >= _Big_allocation_threshold)

  00359	49 81 fc 00 10
	00 00		 cmp	 r12, 4096		; 00001000H
  00360	72 23		 jb	 SHORT $LN478@ray_tracin

; 115  : 	_Bytes += _Non_user_size;

  00362	49 83 c4 27	 add	 r12, 39			; 00000027H

; 116  : 
; 117  : 	const uintptr_t * const _Ptr_user = reinterpret_cast<uintptr_t *>(_Ptr);
; 118  : 	const uintptr_t _Ptr_container = _Ptr_user[-1];

  00366	48 8b 7f f8	 mov	 rdi, QWORD PTR [rdi-8]
  0036a	48 2b c7	 sub	 rax, rdi

; 119  : 
; 120  : 	// If the following asserts, it likely means that we are performing
; 121  : 	// an aligned delete on memory coming from an unaligned allocation.
; 122  : 	_STL_ASSERT(_Ptr_user[-2] == _Big_allocation_sentinel, "invalid argument");
; 123  : 
; 124  : 	// Extra paranoia on aligned allocation/deallocation; ensure _Ptr_container is
; 125  : 	// in range [_Min_back_shift, _Non_user_size]
; 126  :   #ifdef _DEBUG
; 127  : 	constexpr uintptr_t _Min_back_shift = 2 * sizeof(void *);
; 128  :   #else /* ^^^ _DEBUG ^^^ // vvv !_DEBUG vvv */
; 129  : 	constexpr uintptr_t _Min_back_shift = sizeof(void *);
; 130  :   #endif /* _DEBUG */
; 131  : 	const uintptr_t _Back_shift = reinterpret_cast<uintptr_t>(_Ptr) - _Ptr_container;
; 132  : 	_STL_VERIFY(_Back_shift >= _Min_back_shift && _Back_shift <= _Non_user_size, "invalid argument");

  0036d	48 83 c0 f8	 add	 rax, -8
  00371	48 83 f8 1f	 cmp	 rax, 31
  00375	76 0e		 jbe	 SHORT $LN478@ray_tracin
  00377	ff 15 00 00 00
	00		 call	 QWORD PTR __imp__invalid_parameter_noinfo_noreturn
  0037d	cc		 int	 3
$LN507@ray_tracin:
; File c:\program files (x86)\microsoft visual studio\2017\community\vc\tools\msvc\14.15.26726\include\thread

; 56   : 			_STD terminate();

  0037e	ff 15 00 00 00
	00		 call	 QWORD PTR __imp_terminate
  00384	cc		 int	 3
$LN478@ray_tracin:
; File c:\program files (x86)\microsoft visual studio\2017\community\vc\tools\msvc\14.15.26726\include\xmemory0

; 207  : 	::operator delete(_Ptr, _Bytes);

  00385	49 8b d4	 mov	 rdx, r12
  00388	48 8b cf	 mov	 rcx, rdi
  0038b	e8 00 00 00 00	 call	 ??3@YAXPEAX_K@Z		; operator delete
$LN381@ray_tracin:
; File c:\users\blockchainvirus\dropbox\code\cudatetris\cudatetris\raytracing.cpp

  00390	33 c0		 xor	 eax, eax

  00392	4c 8d 9c 24 b0
	00 00 00	 lea	 r11, QWORD PTR [rsp+176]
  0039a	49 8b 5b 30	 mov	 rbx, QWORD PTR [r11+48]
  0039e	49 8b 73 38	 mov	 rsi, QWORD PTR [r11+56]
  003a2	49 8b 7b 40	 mov	 rdi, QWORD PTR [r11+64]
  003a6	49 8b e3	 mov	 rsp, r11
  003a9	41 5f		 pop	 r15
  003ab	41 5e		 pop	 r14
  003ad	41 5d		 pop	 r13
  003af	41 5c		 pop	 r12
  003b1	5d		 pop	 rbp
  003b2	c3		 ret	 0
$LN506@ray_tracin:
; File c:\program files (x86)\microsoft visual studio\2017\community\vc\tools\msvc\14.15.26726\include\thread

; 56   : 			_STD terminate();

  003b3	ff 15 00 00 00
	00		 call	 QWORD PTR __imp_terminate
  003b9	90		 npad	 1
$LN527@ray_tracin:
?ray_tracing_main@RaytraceEnviroment@@QEAAHPEAIHHH@Z ENDP ; RaytraceEnviroment::ray_tracing_main
_TEXT	ENDS
;	COMDAT text$x
text$x	SEGMENT
rayTraceThreadConfig$1$ = 32
$T43 = 40
_Launcher$154 = 56
threads$ = 96
$T114 = 128
_Cnd_cleaner$155 = 128
$T28 = 144
_Mtx_cleaner$156 = 152
$T157 = 168
this$ = 224
back_buffer$ = 232
width$ = 240
height$ = 248
count$dead$ = 256
?dtor$0@?0??ray_tracing_main@RaytraceEnviroment@@QEAAHPEAIHHH@Z@4HA PROC ; `RaytraceEnviroment::ray_tracing_main'::`1'::dtor$0
  00000	48 8d 8a 60 00
	00 00		 lea	 rcx, QWORD PTR threads$[rdx]
  00007	e9 00 00 00 00	 jmp	 ??1?$vector@Vthread@std@@V?$allocator@Vthread@std@@@2@@std@@QEAA@XZ ; std::vector<std::thread,std::allocator<std::thread> >::~vector<std::thread,std::allocator<std::thread> >
?dtor$0@?0??ray_tracing_main@RaytraceEnviroment@@QEAAHPEAIHHH@Z@4HA ENDP ; `RaytraceEnviroment::ray_tracing_main'::`1'::dtor$0
rayTraceThreadConfig$1$ = 32
$T43 = 40
_Launcher$154 = 56
threads$ = 96
$T114 = 128
_Cnd_cleaner$155 = 128
$T28 = 144
_Mtx_cleaner$156 = 152
$T157 = 168
this$ = 224
back_buffer$ = 232
width$ = 240
height$ = 248
count$dead$ = 256
?dtor$2@?0??ray_tracing_main@RaytraceEnviroment@@QEAAHPEAIHHH@Z@4HA PROC ; `RaytraceEnviroment::ray_tracing_main'::`1'::dtor$2
  0000c	48 8d 8a 90 00
	00 00		 lea	 rcx, QWORD PTR $T28[rdx]
  00013	e9 00 00 00 00	 jmp	 ??1?$unique_ptr@V?$tuple@P6AXPEAURayTraceTreadConfig@@H@ZPEAU1@H@std@@U?$default_delete@V?$tuple@P6AXPEAURayTraceTreadConfig@@H@ZPEAU1@H@std@@@2@@std@@QEAA@XZ ; std::unique_ptr<std::tuple<void (__cdecl*)(RayTraceTreadConfig *,int),RayTraceTreadConfig *,int>,std::default_delete<std::tuple<void (__cdecl*)(RayTraceTreadConfig *,int),RayTraceTreadConfig *,int> > >::~unique_ptr<std::tuple<void (__cdecl*)(RayTraceTreadConfig *,int),RayTraceTreadConfig *,int>,std::default_delete<std::tuple<void (__cdecl*)(RayTraceTreadConfig *,int),RayTraceTreadConfig *,int> > >
?dtor$2@?0??ray_tracing_main@RaytraceEnviroment@@QEAAHPEAIHHH@Z@4HA ENDP ; `RaytraceEnviroment::ray_tracing_main'::`1'::dtor$2
rayTraceThreadConfig$1$ = 32
$T43 = 40
_Launcher$154 = 56
threads$ = 96
$T114 = 128
_Cnd_cleaner$155 = 128
$T28 = 144
_Mtx_cleaner$156 = 152
$T157 = 168
this$ = 224
back_buffer$ = 232
width$ = 240
height$ = 248
count$dead$ = 256
?dtor$7@?0??ray_tracing_main@RaytraceEnviroment@@QEAAHPEAIHHH@Z@4HA PROC ; `RaytraceEnviroment::ray_tracing_main'::`1'::dtor$7
  00018	48 8d 8a 80 00
	00 00		 lea	 rcx, QWORD PTR _Cnd_cleaner$155[rdx]
  0001f	e9 00 00 00 00	 jmp	 ??1_Auto_cnd@std@@QEAA@XZ ; std::_Auto_cnd::~_Auto_cnd
?dtor$7@?0??ray_tracing_main@RaytraceEnviroment@@QEAAHPEAIHHH@Z@4HA ENDP ; `RaytraceEnviroment::ray_tracing_main'::`1'::dtor$7
rayTraceThreadConfig$1$ = 32
$T43 = 40
_Launcher$154 = 56
threads$ = 96
$T114 = 128
_Cnd_cleaner$155 = 128
$T28 = 144
_Mtx_cleaner$156 = 152
$T157 = 168
this$ = 224
back_buffer$ = 232
width$ = 240
height$ = 248
count$dead$ = 256
?dtor$8@?0??ray_tracing_main@RaytraceEnviroment@@QEAAHPEAIHHH@Z@4HA PROC ; `RaytraceEnviroment::ray_tracing_main'::`1'::dtor$8
  00024	48 8d 8a 98 00
	00 00		 lea	 rcx, QWORD PTR _Mtx_cleaner$156[rdx]
  0002b	e9 00 00 00 00	 jmp	 ??1_Auto_mtx@std@@QEAA@XZ ; std::_Auto_mtx::~_Auto_mtx
?dtor$8@?0??ray_tracing_main@RaytraceEnviroment@@QEAAHPEAIHHH@Z@4HA ENDP ; `RaytraceEnviroment::ray_tracing_main'::`1'::dtor$8
rayTraceThreadConfig$1$ = 32
$T43 = 40
_Launcher$154 = 56
threads$ = 96
$T114 = 128
_Cnd_cleaner$155 = 128
$T28 = 144
_Mtx_cleaner$156 = 152
$T157 = 168
this$ = 224
back_buffer$ = 232
width$ = 240
height$ = 248
count$dead$ = 256
?dtor$4@?0??ray_tracing_main@RaytraceEnviroment@@QEAAHPEAIHHH@Z@4HA PROC ; `RaytraceEnviroment::ray_tracing_main'::`1'::dtor$4
  00030	48 8d 8a 38 00
	00 00		 lea	 rcx, QWORD PTR _Launcher$154[rdx]
  00037	e9 00 00 00 00	 jmp	 ??1?$_LaunchPad@V?$unique_ptr@V?$tuple@P6AXPEAURayTraceTreadConfig@@H@ZPEAU1@H@std@@U?$default_delete@V?$tuple@P6AXPEAURayTraceTreadConfig@@H@ZPEAU1@H@std@@@2@@std@@@std@@QEAA@XZ
?dtor$4@?0??ray_tracing_main@RaytraceEnviroment@@QEAAHPEAIHHH@Z@4HA ENDP ; `RaytraceEnviroment::ray_tracing_main'::`1'::dtor$4
rayTraceThreadConfig$1$ = 32
$T43 = 40
_Launcher$154 = 56
threads$ = 96
$T114 = 128
_Cnd_cleaner$155 = 128
$T28 = 144
_Mtx_cleaner$156 = 152
$T157 = 168
this$ = 224
back_buffer$ = 232
width$ = 240
height$ = 248
count$dead$ = 256
?dtor$1@?0??ray_tracing_main@RaytraceEnviroment@@QEAAHPEAIHHH@Z@4HA PROC ; `RaytraceEnviroment::ray_tracing_main'::`1'::dtor$1
  0003c	48 8d 8a 28 00
	00 00		 lea	 rcx, QWORD PTR $T43[rdx]
  00043	e9 00 00 00 00	 jmp	 ??1thread@std@@QEAA@XZ	; std::thread::~thread
?dtor$1@?0??ray_tracing_main@RaytraceEnviroment@@QEAAHPEAIHHH@Z@4HA ENDP ; `RaytraceEnviroment::ray_tracing_main'::`1'::dtor$1
text$x	ENDS
; Function compile flags: /Ogtpy
;	COMDAT text$x
text$x	SEGMENT
rayTraceThreadConfig$1$ = 32
$T43 = 40
_Launcher$154 = 56
threads$ = 96
$T114 = 128
_Cnd_cleaner$155 = 128
$T28 = 144
_Mtx_cleaner$156 = 152
$T157 = 168
this$ = 224
back_buffer$ = 232
width$ = 240
height$ = 248
count$dead$ = 256
?dtor$0@?0??ray_tracing_main@RaytraceEnviroment@@QEAAHPEAIHHH@Z@4HA PROC ; `RaytraceEnviroment::ray_tracing_main'::`1'::dtor$0
  00000	48 8d 8a 60 00
	00 00		 lea	 rcx, QWORD PTR threads$[rdx]
  00007	e9 00 00 00 00	 jmp	 ??1?$vector@Vthread@std@@V?$allocator@Vthread@std@@@2@@std@@QEAA@XZ ; std::vector<std::thread,std::allocator<std::thread> >::~vector<std::thread,std::allocator<std::thread> >
?dtor$0@?0??ray_tracing_main@RaytraceEnviroment@@QEAAHPEAIHHH@Z@4HA ENDP ; `RaytraceEnviroment::ray_tracing_main'::`1'::dtor$0
text$x	ENDS
; Function compile flags: /Ogtpy
;	COMDAT text$x
text$x	SEGMENT
rayTraceThreadConfig$1$ = 32
$T43 = 40
_Launcher$154 = 56
threads$ = 96
$T114 = 128
_Cnd_cleaner$155 = 128
$T28 = 144
_Mtx_cleaner$156 = 152
$T157 = 168
this$ = 224
back_buffer$ = 232
width$ = 240
height$ = 248
count$dead$ = 256
?dtor$2@?0??ray_tracing_main@RaytraceEnviroment@@QEAAHPEAIHHH@Z@4HA PROC ; `RaytraceEnviroment::ray_tracing_main'::`1'::dtor$2
  0000c	48 8d 8a 90 00
	00 00		 lea	 rcx, QWORD PTR $T28[rdx]
  00013	e9 00 00 00 00	 jmp	 ??1?$unique_ptr@V?$tuple@P6AXPEAURayTraceTreadConfig@@H@ZPEAU1@H@std@@U?$default_delete@V?$tuple@P6AXPEAURayTraceTreadConfig@@H@ZPEAU1@H@std@@@2@@std@@QEAA@XZ ; std::unique_ptr<std::tuple<void (__cdecl*)(RayTraceTreadConfig *,int),RayTraceTreadConfig *,int>,std::default_delete<std::tuple<void (__cdecl*)(RayTraceTreadConfig *,int),RayTraceTreadConfig *,int> > >::~unique_ptr<std::tuple<void (__cdecl*)(RayTraceTreadConfig *,int),RayTraceTreadConfig *,int>,std::default_delete<std::tuple<void (__cdecl*)(RayTraceTreadConfig *,int),RayTraceTreadConfig *,int> > >
?dtor$2@?0??ray_tracing_main@RaytraceEnviroment@@QEAAHPEAIHHH@Z@4HA ENDP ; `RaytraceEnviroment::ray_tracing_main'::`1'::dtor$2
text$x	ENDS
; Function compile flags: /Ogtpy
;	COMDAT text$x
text$x	SEGMENT
rayTraceThreadConfig$1$ = 32
$T43 = 40
_Launcher$154 = 56
threads$ = 96
$T114 = 128
_Cnd_cleaner$155 = 128
$T28 = 144
_Mtx_cleaner$156 = 152
$T157 = 168
this$ = 224
back_buffer$ = 232
width$ = 240
height$ = 248
count$dead$ = 256
?dtor$7@?0??ray_tracing_main@RaytraceEnviroment@@QEAAHPEAIHHH@Z@4HA PROC ; `RaytraceEnviroment::ray_tracing_main'::`1'::dtor$7
  00018	48 8d 8a 80 00
	00 00		 lea	 rcx, QWORD PTR _Cnd_cleaner$155[rdx]
  0001f	e9 00 00 00 00	 jmp	 ??1_Auto_cnd@std@@QEAA@XZ ; std::_Auto_cnd::~_Auto_cnd
?dtor$7@?0??ray_tracing_main@RaytraceEnviroment@@QEAAHPEAIHHH@Z@4HA ENDP ; `RaytraceEnviroment::ray_tracing_main'::`1'::dtor$7
text$x	ENDS
; Function compile flags: /Ogtpy
;	COMDAT text$x
text$x	SEGMENT
rayTraceThreadConfig$1$ = 32
$T43 = 40
_Launcher$154 = 56
threads$ = 96
$T114 = 128
_Cnd_cleaner$155 = 128
$T28 = 144
_Mtx_cleaner$156 = 152
$T157 = 168
this$ = 224
back_buffer$ = 232
width$ = 240
height$ = 248
count$dead$ = 256
?dtor$8@?0??ray_tracing_main@RaytraceEnviroment@@QEAAHPEAIHHH@Z@4HA PROC ; `RaytraceEnviroment::ray_tracing_main'::`1'::dtor$8
  00024	48 8d 8a 98 00
	00 00		 lea	 rcx, QWORD PTR _Mtx_cleaner$156[rdx]
  0002b	e9 00 00 00 00	 jmp	 ??1_Auto_mtx@std@@QEAA@XZ ; std::_Auto_mtx::~_Auto_mtx
?dtor$8@?0??ray_tracing_main@RaytraceEnviroment@@QEAAHPEAIHHH@Z@4HA ENDP ; `RaytraceEnviroment::ray_tracing_main'::`1'::dtor$8
text$x	ENDS
; Function compile flags: /Ogtpy
;	COMDAT text$x
text$x	SEGMENT
rayTraceThreadConfig$1$ = 32
$T43 = 40
_Launcher$154 = 56
threads$ = 96
$T114 = 128
_Cnd_cleaner$155 = 128
$T28 = 144
_Mtx_cleaner$156 = 152
$T157 = 168
this$ = 224
back_buffer$ = 232
width$ = 240
height$ = 248
count$dead$ = 256
?dtor$4@?0??ray_tracing_main@RaytraceEnviroment@@QEAAHPEAIHHH@Z@4HA PROC ; `RaytraceEnviroment::ray_tracing_main'::`1'::dtor$4
  00030	48 8d 8a 38 00
	00 00		 lea	 rcx, QWORD PTR _Launcher$154[rdx]
  00037	e9 00 00 00 00	 jmp	 ??1?$_LaunchPad@V?$unique_ptr@V?$tuple@P6AXPEAURayTraceTreadConfig@@H@ZPEAU1@H@std@@U?$default_delete@V?$tuple@P6AXPEAURayTraceTreadConfig@@H@ZPEAU1@H@std@@@2@@std@@@std@@QEAA@XZ
?dtor$4@?0??ray_tracing_main@RaytraceEnviroment@@QEAAHPEAIHHH@Z@4HA ENDP ; `RaytraceEnviroment::ray_tracing_main'::`1'::dtor$4
text$x	ENDS
; Function compile flags: /Ogtpy
;	COMDAT text$x
text$x	SEGMENT
rayTraceThreadConfig$1$ = 32
$T43 = 40
_Launcher$154 = 56
threads$ = 96
$T114 = 128
_Cnd_cleaner$155 = 128
$T28 = 144
_Mtx_cleaner$156 = 152
$T157 = 168
this$ = 224
back_buffer$ = 232
width$ = 240
height$ = 248
count$dead$ = 256
?dtor$1@?0??ray_tracing_main@RaytraceEnviroment@@QEAAHPEAIHHH@Z@4HA PROC ; `RaytraceEnviroment::ray_tracing_main'::`1'::dtor$1
  0003c	48 8d 8a 28 00
	00 00		 lea	 rcx, QWORD PTR $T43[rdx]
  00043	e9 00 00 00 00	 jmp	 ??1thread@std@@QEAA@XZ	; std::thread::~thread
?dtor$1@?0??ray_tracing_main@RaytraceEnviroment@@QEAAHPEAIHHH@Z@4HA ENDP ; `RaytraceEnviroment::ray_tracing_main'::`1'::dtor$1
text$x	ENDS
END
