; Listing generated by Microsoft (R) Optimizing Compiler Version 19.15.26726.0 

include listing.inc

INCLUDELIB OLDNAMES

PUBLIC	??_R2Vgfw@@8					; Vgfw::`RTTI Base Class Array'
PUBLIC	??_7Vgfw@@6B@					; Vgfw::`vftable'
PUBLIC	??_R3Vgfw@@8					; Vgfw::`RTTI Class Hierarchy Descriptor'
PUBLIC	?default_palette@?1??initialize@Vgfw@@QEAA_NPEB_WPEAUHINSTANCE__@@HHH@Z@4PAIA ; `Vgfw::initialize'::`2'::default_palette
PUBLIC	??_R0?AVVgfw@@@8				; Vgfw `RTTI Type Descriptor'
PUBLIC	??_R1A@?0A@EA@Vgfw@@8				; Vgfw::`RTTI Base Class Descriptor at (0,-1,0,64)'
PUBLIC	??_R4Vgfw@@6B@					; Vgfw::`RTTI Complete Object Locator'
PUBLIC	??_C@_0BC@CECABNEH@Win32?5Guided?5Tour@		; `string'
PUBLIC	??_C@_0CA@PGPJAAEK@Call?5to?5RegisterClassEx?5failed?$CB@ ; `string'
PUBLIC	??_C@_0BN@MKLCKAMI@Call?5to?5CreateWindow?5failed?$CB@ ; `string'
PUBLIC	??_C@_15KNBIKKIN@?$AA?$CF?$AAd@			; `string'
PUBLIC	??_C@_04EFLKFJA@Vgfw@				; `string'
PUBLIC	??_C@_0BA@MKMNPBKH@JUST?5A?5HOT?5AWAY@		; `string'
PUBLIC	??_C@_1M@GINHBNC@?$AAh?$AAe?$AAl?$AAl?$AAo@	; `string'
EXTRN	__imp_SelectObject:PROC
EXTRN	__imp_SetPropA:PROC
EXTRN	__imp_CreateDIBSection:PROC
EXTRN	__imp__Xtime_get_ticks:PROC
EXTRN	__imp_DispatchMessageA:PROC
EXTRN	__imp_LoadCursorA:PROC
EXTRN	__imp_CreateCompatibleDC:PROC
EXTRN	__imp_StretchBlt:PROC
EXTRN	??_U@YAPEAX_K@Z:PROC				; operator new[]
EXTRN	__imp_ShowWindow:PROC
EXTRN	__imp_IsWindow:PROC
EXTRN	__imp___stdio_common_vswprintf:PROC
EXTRN	__imp_GetLastError:PROC
EXTRN	__imp___stdio_common_vfprintf:PROC
EXTRN	__imp_SetWindowTextA:PROC
EXTRN	__imp_MessageBoxA:PROC
EXTRN	__imp_DeleteDC:PROC
EXTRN	__imp_GetModuleHandleA:PROC
EXTRN	__imp_GetPropA:PROC
EXTRN	__imp_DefWindowProcA:PROC
EXTRN	__imp_CreateWindowExA:PROC
EXTRN	__imp_TranslateMessage:PROC
EXTRN	__imp__wcsdup:PROC
EXTRN	__imp_SetDIBits:PROC
EXTRN	__imp_LoadIconA:PROC
EXTRN	__imp___acrt_iob_func:PROC
EXTRN	__imp_PeekMessageA:PROC
EXTRN	__imp_UnregisterClassA:PROC
EXTRN	__imp_DeleteObject:PROC
EXTRN	__imp_PostQuitMessage:PROC
EXTRN	__imp_SetPriorityClass:PROC
EXTRN	__imp_RegisterClassExA:PROC
EXTRN	__imp_InvalidateRect:PROC
EXTRN	??_V@YAXPEAX@Z:PROC				; operator delete[]
EXTRN	__imp_BeginPaint:PROC
EXTRN	__imp_EndPaint:PROC
;	COMDAT ??_C@_1M@GINHBNC@?$AAh?$AAe?$AAl?$AAl?$AAo@
CONST	SEGMENT
??_C@_1M@GINHBNC@?$AAh?$AAe?$AAl?$AAl?$AAo@ DB 'h', 00H, 'e', 00H, 'l', 00H
	DB	'l', 00H, 'o', 00H, 00H, 00H			; `string'
CONST	ENDS
;	COMDAT ??_C@_0BA@MKMNPBKH@JUST?5A?5HOT?5AWAY@
CONST	SEGMENT
??_C@_0BA@MKMNPBKH@JUST?5A?5HOT?5AWAY@ DB 'JUST A HOT AWAY', 00H ; `string'
CONST	ENDS
;	COMDAT ??_C@_04EFLKFJA@Vgfw@
CONST	SEGMENT
??_C@_04EFLKFJA@Vgfw@ DB 'Vgfw', 00H			; `string'
CONST	ENDS
;	COMDAT ??_C@_15KNBIKKIN@?$AA?$CF?$AAd@
CONST	SEGMENT
??_C@_15KNBIKKIN@?$AA?$CF?$AAd@ DB '%', 00H, 'd', 00H, 00H, 00H ; `string'
CONST	ENDS
;	COMDAT ??_C@_0BN@MKLCKAMI@Call?5to?5CreateWindow?5failed?$CB@
CONST	SEGMENT
??_C@_0BN@MKLCKAMI@Call?5to?5CreateWindow?5failed?$CB@ DB 'Call to Create'
	DB	'Window failed!', 00H			; `string'
CONST	ENDS
;	COMDAT ??_C@_0CA@PGPJAAEK@Call?5to?5RegisterClassEx?5failed?$CB@
CONST	SEGMENT
??_C@_0CA@PGPJAAEK@Call?5to?5RegisterClassEx?5failed?$CB@ DB 'Call to Reg'
	DB	'isterClassEx failed!', 00H			; `string'
CONST	ENDS
;	COMDAT ??_C@_0BC@CECABNEH@Win32?5Guided?5Tour@
CONST	SEGMENT
??_C@_0BC@CECABNEH@Win32?5Guided?5Tour@ DB 'Win32 Guided Tour', 00H ; `string'
CONST	ENDS
;	COMDAT ??_R4Vgfw@@6B@
rdata$r	SEGMENT
??_R4Vgfw@@6B@ DD 01H					; Vgfw::`RTTI Complete Object Locator'
	DD	00H
	DD	00H
	DD	imagerel ??_R0?AVVgfw@@@8
	DD	imagerel ??_R3Vgfw@@8
	DD	imagerel ??_R4Vgfw@@6B@
rdata$r	ENDS
;	COMDAT ??_R1A@?0A@EA@Vgfw@@8
rdata$r	SEGMENT
??_R1A@?0A@EA@Vgfw@@8 DD imagerel ??_R0?AVVgfw@@@8	; Vgfw::`RTTI Base Class Descriptor at (0,-1,0,64)'
	DD	00H
	DD	00H
	DD	0ffffffffH
	DD	00H
	DD	040H
	DD	imagerel ??_R3Vgfw@@8
rdata$r	ENDS
;	COMDAT ??_R0?AVVgfw@@@8
data$r	SEGMENT
??_R0?AVVgfw@@@8 DQ FLAT:??_7type_info@@6B@		; Vgfw `RTTI Type Descriptor'
	DQ	0000000000000000H
	DB	'.?AVVgfw@@', 00H
data$r	ENDS
;	COMDAT ?default_palette@?1??initialize@Vgfw@@QEAA_NPEB_WPEAUHINSTANCE__@@HHH@Z@4PAIA
CONST	SEGMENT
?default_palette@?1??initialize@Vgfw@@QEAA_NPEB_WPEAUHINSTANCE__@@HHH@Z@4PAIA DD 00H ; `Vgfw::initialize'::`2'::default_palette
	DD	0a8H
	DD	0a800H
	DD	0a8a8H
	DD	0a80000H
	DD	0a800a8H
	DD	0a85400H
	DD	0a8a8a8H
	DD	0545454H
	DD	05454fcH
	DD	054fc54H
	DD	054fcfcH
	DD	0fc5454H
	DD	0fc54fcH
	DD	0fcfc54H
	DD	0fcfcfcH
	DD	00H
	DD	0141414H
	DD	0202020H
	DD	02c2c2cH
	DD	0383838H
	DD	0444444H
	DD	0505050H
	DD	0606060H
	DD	0707070H
	DD	0808080H
	DD	0909090H
	DD	0a0a0a0H
	DD	0b4b4b4H
	DD	0c8c8c8H
	DD	0e0e0e0H
	DD	0fcfcfcH
	DD	0fcH
	DD	04000fcH
	DD	07c00fcH
	DD	0bc00fcH
	DD	0fc00fcH
	DD	0fc00bcH
	DD	0fc007cH
	DD	0fc0040H
	DD	0fc0000H
	DD	0fc4000H
	DD	0fc7c00H
	DD	0fcbc00H
	DD	0fcfc00H
	DD	0bcfc00H
	DD	07cfc00H
	DD	040fc00H
	DD	0fc00H
	DD	0fc40H
	DD	0fc7cH
	DD	0fcbcH
	DD	0fcfcH
	DD	0bcfcH
	DD	07cfcH
	DD	040fcH
	DD	07c7cfcH
	DD	09c7cfcH
	DD	0bc7cfcH
	DD	0dc7cfcH
	DD	0fc7cfcH
	DD	0fc7cdcH
	DD	0fc7cbcH
	DD	0fc7c9cH
	DD	0fc7c7cH
	DD	0fc9c7cH
	DD	0fcbc7cH
	DD	0fcdc7cH
	DD	0fcfc7cH
	DD	0dcfc7cH
	DD	0bcfc7cH
	DD	09cfc7cH
	DD	07cfc7cH
	DD	07cfc9cH
	DD	07cfcbcH
	DD	07cfcdcH
	DD	07cfcfcH
	DD	07cdcfcH
	DD	07cbcfcH
	DD	07c9cfcH
	DD	0b4b4fcH
	DD	0c4b4fcH
	DD	0d8b4fcH
	DD	0e8b4fcH
	DD	0fcb4fcH
	DD	0fcb4e8H
	DD	0fcb4d8H
	DD	0fcb4c4H
	DD	0fcb4b4H
	DD	0fcc4b4H
	DD	0fcd8b4H
	DD	0fce8b4H
	DD	0fcfcb4H
	DD	0e8fcb4H
	DD	0d8fcb4H
	DD	0c4fcb4H
	DD	0b4fcb4H
	DD	0b4fcc4H
	DD	0b4fcd8H
	DD	0b4fce8H
	DD	0b4fcfcH
	DD	0b4e8fcH
	DD	0b4d8fcH
	DD	0b4c4fcH
	DD	070H
	DD	01c0070H
	DD	0380070H
	DD	0540070H
	DD	0700070H
	DD	0700054H
	DD	0700038H
	DD	070001cH
	DD	0700000H
	DD	0701c00H
	DD	0703800H
	DD	0705400H
	DD	0707000H
	DD	0547000H
	DD	0387000H
	DD	01c7000H
	DD	07000H
	DD	0701cH
	DD	07038H
	DD	07054H
	DD	07070H
	DD	05470H
	DD	03870H
	DD	01c70H
	DD	0383870H
	DD	0443870H
	DD	0543870H
	DD	0603870H
	DD	0703870H
	DD	0703860H
	DD	0703854H
	DD	0703844H
	DD	0703838H
	DD	0704438H
	DD	0705438H
	DD	0706038H
	DD	0707038H
	DD	0607038H
	DD	0547038H
	DD	0447038H
	DD	0387038H
	DD	0387044H
	DD	0387054H
	DD	0387060H
	DD	0387070H
	DD	0386070H
	DD	0385470H
	DD	0384470H
	DD	0505070H
	DD	0585070H
	DD	0605070H
	DD	0685070H
	DD	0705070H
	DD	0705068H
	DD	0705060H
	DD	0705058H
	DD	0705050H
	DD	0705850H
	DD	0706050H
	DD	0706850H
	DD	0707050H
	DD	0687050H
	DD	0607050H
	DD	0587050H
	DD	0507050H
	DD	0507058H
	DD	0507060H
	DD	0507068H
	DD	0507070H
	DD	0506870H
	DD	0506070H
	DD	0505870H
	DD	040H
	DD	0100040H
	DD	0200040H
	DD	0300040H
	DD	0400040H
	DD	0400030H
	DD	0400020H
	DD	0400010H
	DD	0400000H
	DD	0401000H
	DD	0402000H
	DD	0403000H
	DD	0404000H
	DD	0304000H
	DD	0204000H
	DD	0104000H
	DD	04000H
	DD	04010H
	DD	04020H
	DD	04030H
	DD	04040H
	DD	03040H
	DD	02040H
	DD	01040H
	DD	0202040H
	DD	0282040H
	DD	0302040H
	DD	0382040H
	DD	0402040H
	DD	0402038H
	DD	0402030H
	DD	0402028H
	DD	0402020H
	DD	0402820H
	DD	0403020H
	DD	0403820H
	DD	0404020H
	DD	0384020H
	DD	0304020H
	DD	0284020H
	DD	0204020H
	DD	0204028H
	DD	0204030H
	DD	0204038H
	DD	0204040H
	DD	0203840H
	DD	0203040H
	DD	0202840H
	DD	02c2c40H
	DD	0302c40H
	DD	0342c40H
	DD	03c2c40H
	DD	0402c40H
	DD	0402c3cH
	DD	0402c34H
	DD	0402c30H
	DD	0402c2cH
	DD	040302cH
	DD	040342cH
	DD	0403c2cH
	DD	040402cH
	DD	03c402cH
	DD	034402cH
	DD	030402cH
	DD	02c402cH
	DD	02c4030H
	DD	02c4034H
	DD	02c403cH
	DD	02c4040H
	DD	02c3c40H
	DD	02c3440H
	DD	02c3040H
	DD	00H
	DD	00H
	DD	00H
	DD	00H
	DD	00H
	DD	00H
	DD	00H
	DD	00H
CONST	ENDS
;	COMDAT ??_R3Vgfw@@8
rdata$r	SEGMENT
??_R3Vgfw@@8 DD	00H					; Vgfw::`RTTI Class Hierarchy Descriptor'
	DD	00H
	DD	01H
	DD	imagerel ??_R2Vgfw@@8
rdata$r	ENDS
;	COMDAT ??_7Vgfw@@6B@
CONST	SEGMENT
??_7Vgfw@@6B@ DQ FLAT:??_R4Vgfw@@6B@			; Vgfw::`vftable'
	DQ	FLAT:??_EVgfw@@UEAAPEAXI@Z
	DQ	FLAT:?on_create@Vgfw@@UEAA_NXZ
	DQ	FLAT:?on_destroy@Vgfw@@UEAAXXZ
	DQ	FLAT:?on_update@Vgfw@@UEAA_NM@Z
CONST	ENDS
;	COMDAT ??_R2Vgfw@@8
rdata$r	SEGMENT
??_R2Vgfw@@8 DD	imagerel ??_R1A@?0A@EA@Vgfw@@8		; Vgfw::`RTTI Base Class Array'
	ORG $+3
PUBLIC	??$?0MX@?$duration@MU?$ratio@$00$00@std@@@chrono@std@@QEAA@AEBM@Z ; std::chrono::duration<float,std::ratio<1,1> >::duration<float,std::ratio<1,1> ><float,void>
PUBLIC	??$duration_cast@V?$duration@MU?$ratio@$00$00@std@@@chrono@std@@_JU?$ratio@$00$0JIJGIA@@3@X@chrono@std@@YA?AV?$duration@MU?$ratio@$00$00@std@@@01@AEBV?$duration@_JU?$ratio@$00$0JIJGIA@@std@@@01@@Z ; std::chrono::duration_cast<std::chrono::duration<float,std::ratio<1,1> >,__int64,std::ratio<1,10000000>,void>
PUBLIC	??$?G_JU?$ratio@$00$0JIJGIA@@std@@_JU01@@chrono@std@@YA?AV?$duration@_JU?$ratio@$00$0JIJGIA@@std@@@01@AEBV201@0@Z ; std::chrono::operator-<__int64,std::ratio<1,10000000>,__int64,std::ratio<1,10000000> >
PUBLIC	??$?0_JU?$ratio@$00$0JIJGIA@@std@@X@?$duration@MU?$ratio@$00$00@std@@@chrono@std@@QEAA@AEBV?$duration@_JU?$ratio@$00$0JIJGIA@@std@@@12@@Z ; std::chrono::duration<float,std::ratio<1,1> >::duration<float,std::ratio<1,1> ><__int64,std::ratio<1,10000000>,void>
PUBLIC	??$?GUsystem_clock@chrono@std@@V?$duration@_JU?$ratio@$00$0JIJGIA@@std@@@12@V312@@chrono@std@@YA?AV?$duration@_JU?$ratio@$00$0JIJGIA@@std@@@01@AEBV?$time_point@Usystem_clock@chrono@std@@V?$duration@_JU?$ratio@$00$0JIJGIA@@std@@@23@@01@0@Z ; std::chrono::operator-<std::chrono::system_clock,std::chrono::duration<__int64,std::ratio<1,10000000> >,std::chrono::duration<__int64,std::ratio<1,10000000> > >
PUBLIC	??$?0_JX@?$duration@_JU?$ratio@$00$0JIJGIA@@std@@@chrono@std@@QEAA@AEB_J@Z ; std::chrono::duration<__int64,std::ratio<1,10000000> >::duration<__int64,std::ratio<1,10000000> ><__int64,void>
PUBLIC	?count@?$duration@_JU?$ratio@$00$0JIJGIA@@std@@@chrono@std@@QEBA_JXZ ; std::chrono::duration<__int64,std::ratio<1,10000000> >::count
PUBLIC	??0?$time_point@Usystem_clock@chrono@std@@V?$duration@_JU?$ratio@$00$0JIJGIA@@std@@@23@@chrono@std@@QEAA@AEBV?$duration@_JU?$ratio@$00$0JIJGIA@@std@@@12@@Z ; std::chrono::time_point<std::chrono::system_clock,std::chrono::duration<__int64,std::ratio<1,10000000> > >::time_point<std::chrono::system_clock,std::chrono::duration<__int64,std::ratio<1,10000000> > >
PUBLIC	?time_since_epoch@?$time_point@Usystem_clock@chrono@std@@V?$duration@_JU?$ratio@$00$0JIJGIA@@std@@@23@@chrono@std@@QEBA?AV?$duration@_JU?$ratio@$00$0JIJGIA@@std@@@23@XZ ; std::chrono::time_point<std::chrono::system_clock,std::chrono::duration<__int64,std::ratio<1,10000000> > >::time_since_epoch
PUBLIC	?count@?$duration@MU?$ratio@$00$00@std@@@chrono@std@@QEBAMXZ ; std::chrono::duration<float,std::ratio<1,1> >::count
PUBLIC	??_GVgfw@@UEAAPEAXI@Z				; Vgfw::`scalar deleting destructor'
PUBLIC	??1Vgfw@@UEAA@XZ				; Vgfw::~Vgfw
PUBLIC	??0Vgfw@@QEAA@XZ				; Vgfw::Vgfw
PUBLIC	WinMain
PUBLIC	?window_proc@Vgfw@@CA_JPEAUHWND__@@I_K_J@Z	; Vgfw::window_proc
PUBLIC	?on_paint@Vgfw@@AEAA_JXZ			; Vgfw::on_paint
PUBLIC	?shutdown@Vgfw@@AEAAXXZ				; Vgfw::shutdown
PUBLIC	?quit@Vgfw@@QEAAXXZ				; Vgfw::quit
PUBLIC	?run@Vgfw@@QEAAXXZ				; Vgfw::run
PUBLIC	?initialize@Vgfw@@QEAA_NPEB_WPEAUHINSTANCE__@@HHH@Z ; Vgfw::initialize
PUBLIC	?on_update@Vgfw@@UEAA_NM@Z			; Vgfw::on_update
PUBLIC	?on_destroy@Vgfw@@UEAAXXZ			; Vgfw::on_destroy
PUBLIC	?on_create@Vgfw@@UEAA_NXZ			; Vgfw::on_create
PUBLIC	?now@system_clock@chrono@std@@SA?AV?$time_point@Usystem_clock@chrono@std@@V?$duration@_JU?$ratio@$00$0JIJGIA@@std@@@23@@23@XZ ; std::chrono::system_clock::now
PUBLIC	printf
PUBLIC	_vfprintf_l
PUBLIC	swprintf
PUBLIC	_vswprintf_c_l
PUBLIC	__local_stdio_printf_options
PUBLIC	?_OptionsStorage@?1??__local_stdio_printf_options@@9@4_KA ; `__local_stdio_printf_options'::`2'::_OptionsStorage
EXTRN	??_EVgfw@@UEAAPEAXI@Z:PROC			; Vgfw::`vector deleting destructor'
;	COMDAT ?_OptionsStorage@?1??__local_stdio_printf_options@@9@4_KA
_BSS	SEGMENT
?_OptionsStorage@?1??__local_stdio_printf_options@@9@4_KA DQ 01H DUP (?) ; `__local_stdio_printf_options'::`2'::_OptionsStorage
_BSS	ENDS
;	COMDAT pdata
pdata	SEGMENT
$pdata$??_GVgfw@@UEAAPEAXI@Z DD imagerel $LN9@scalar
	DD	imagerel $LN9@scalar+33
	DD	imagerel $unwind$??_GVgfw@@UEAAPEAXI@Z
pdata	ENDS
;	COMDAT pdata
pdata	SEGMENT
$pdata$??0Vgfw@@QEAA@XZ DD imagerel $LN5@Vgfw
	DD	imagerel $LN5@Vgfw+137
	DD	imagerel $unwind$??0Vgfw@@QEAA@XZ
pdata	ENDS
;	COMDAT pdata
pdata	SEGMENT
$pdata$WinMain DD imagerel $LN9@WinMain
	DD	imagerel $LN9@WinMain+216
	DD	imagerel $unwind$WinMain
pdata	ENDS
;	COMDAT pdata
pdata	SEGMENT
$pdata$?window_proc@Vgfw@@CA_JPEAUHWND__@@I_K_J@Z DD imagerel $LN10@window_pro
	DD	imagerel $LN10@window_pro+551
	DD	imagerel $unwind$?window_proc@Vgfw@@CA_JPEAUHWND__@@I_K_J@Z
pdata	ENDS
;	COMDAT pdata
pdata	SEGMENT
$pdata$?on_paint@Vgfw@@AEAA_JXZ DD imagerel $LN4@on_paint
	DD	imagerel $LN4@on_paint+501
	DD	imagerel $unwind$?on_paint@Vgfw@@AEAA_JXZ
pdata	ENDS
;	COMDAT pdata
pdata	SEGMENT
$pdata$?shutdown@Vgfw@@AEAAXXZ DD imagerel $LN18@shutdown
	DD	imagerel $LN18@shutdown+140
	DD	imagerel $unwind$?shutdown@Vgfw@@AEAAXXZ
pdata	ENDS
;	COMDAT pdata
pdata	SEGMENT
$pdata$?run@Vgfw@@QEAAXXZ DD imagerel $LN106@run
	DD	imagerel $LN106@run+131
	DD	imagerel $unwind$?run@Vgfw@@QEAAXXZ
pdata	ENDS
;	COMDAT pdata
pdata	SEGMENT
$pdata$1$?run@Vgfw@@QEAAXXZ DD imagerel $LN106@run+131
	DD	imagerel $LN106@run+417
	DD	imagerel $chain$1$?run@Vgfw@@QEAAXXZ
pdata	ENDS
;	COMDAT pdata
pdata	SEGMENT
$pdata$2$?run@Vgfw@@QEAAXXZ DD imagerel $LN106@run+417
	DD	imagerel $LN106@run+544
	DD	imagerel $chain$2$?run@Vgfw@@QEAAXXZ
pdata	ENDS
;	COMDAT pdata
pdata	SEGMENT
$pdata$?initialize@Vgfw@@QEAA_NPEB_WPEAUHINSTANCE__@@HHH@Z DD imagerel $LN19@initialize
	DD	imagerel $LN19@initialize+586
	DD	imagerel $unwind$?initialize@Vgfw@@QEAA_NPEB_WPEAUHINSTANCE__@@HHH@Z
pdata	ENDS
;	COMDAT pdata
pdata	SEGMENT
$pdata$?dtor$0@?0??initialize@Vgfw@@QEAA_NPEB_WPEAUHINSTANCE__@@HHH@Z@4HA DD imagerel ?dtor$0@?0??initialize@Vgfw@@QEAA_NPEB_WPEAUHINSTANCE__@@HHH@Z@4HA
	DD	imagerel ?dtor$0@?0??initialize@Vgfw@@QEAA_NPEB_WPEAUHINSTANCE__@@HHH@Z@4HA+32
	DD	imagerel $unwind$?dtor$0@?0??initialize@Vgfw@@QEAA_NPEB_WPEAUHINSTANCE__@@HHH@Z@4HA
pdata	ENDS
;	COMDAT pdata
pdata	SEGMENT
$pdata$?now@system_clock@chrono@std@@SA?AV?$time_point@Usystem_clock@chrono@std@@V?$duration@_JU?$ratio@$00$0JIJGIA@@std@@@23@@23@XZ DD imagerel $LN9@now
	DD	imagerel $LN9@now+27
	DD	imagerel $unwind$?now@system_clock@chrono@std@@SA?AV?$time_point@Usystem_clock@chrono@std@@V?$duration@_JU?$ratio@$00$0JIJGIA@@std@@@23@@23@XZ
pdata	ENDS
;	COMDAT pdata
pdata	SEGMENT
$pdata$printf DD imagerel $LN6@printf
	DD	imagerel $LN6@printf+85
	DD	imagerel $unwind$printf
pdata	ENDS
;	COMDAT pdata
pdata	SEGMENT
$pdata$_vfprintf_l DD imagerel $LN4@vfprintf_l
	DD	imagerel $LN4@vfprintf_l+81
	DD	imagerel $unwind$_vfprintf_l
pdata	ENDS
;	COMDAT pdata
pdata	SEGMENT
$pdata$swprintf DD imagerel $LN6@swprintf
	DD	imagerel $LN6@swprintf+88
	DD	imagerel $unwind$swprintf
pdata	ENDS
;	COMDAT pdata
pdata	SEGMENT
$pdata$_vswprintf_c_l DD imagerel $LN4@vswprintf_
	DD	imagerel $LN4@vswprintf_+92
	DD	imagerel $unwind$_vswprintf_c_l
?szTitle@@3PADA DB 'Win32 Guided Tour Application', 00H	; szTitle
	ORG $+2
?szWindowClass@@3PADA DB 'win32app', 00H		; szWindowClass
_DATA	ENDS
;	COMDAT xdata
xdata	SEGMENT
$unwind$_vswprintf_c_l DD 060f01H
	DD	09640fH
	DD	08340fH
	DD	0700b520fH
xdata	ENDS
;	COMDAT xdata
xdata	SEGMENT
$unwind$swprintf DD 051201H
	DD	0700e6212H
	DD	0500c600dH
	DD	0300bH
xdata	ENDS
;	COMDAT xdata
xdata	SEGMENT
$unwind$_vfprintf_l DD 081401H
	DD	0a6414H
	DD	095414H
	DD	083414H
	DD	070105214H
xdata	ENDS
;	COMDAT xdata
xdata	SEGMENT
$unwind$printf DD 041b01H
	DD	07017521bH
	DD	030156016H
xdata	ENDS
;	COMDAT xdata
xdata	SEGMENT
$unwind$?now@system_clock@chrono@std@@SA?AV?$time_point@Usystem_clock@chrono@std@@V?$duration@_JU?$ratio@$00$0JIJGIA@@std@@@23@@23@XZ DD 020601H
	DD	030023206H
xdata	ENDS
;	COMDAT xdata
xdata	SEGMENT
$unwind$?dtor$0@?0??initialize@Vgfw@@QEAA_NPEB_WPEAUHINSTANCE__@@HHH@Z@4HA DD 020601H
	DD	050023206H
xdata	ENDS
;	COMDAT xdata
xdata	SEGMENT
$ip2state$?initialize@Vgfw@@QEAA_NPEB_WPEAUHINSTANCE__@@HHH@Z DD imagerel ?initialize@Vgfw@@QEAA_NPEB_WPEAUHINSTANCE__@@HHH@Z+94
	DD	0ffffffffH
	DD	imagerel ?initialize@Vgfw@@QEAA_NPEB_WPEAUHINSTANCE__@@HHH@Z+117
	DD	00H
	DD	imagerel ?initialize@Vgfw@@QEAA_NPEB_WPEAUHINSTANCE__@@HHH@Z+521
	DD	0ffffffffH
xdata	ENDS
;	COMDAT xdata
xdata	SEGMENT
$stateUnwindMap$?initialize@Vgfw@@QEAA_NPEB_WPEAUHINSTANCE__@@HHH@Z DD 0ffffffffH
	DD	imagerel ?dtor$0@?0??initialize@Vgfw@@QEAA_NPEB_WPEAUHINSTANCE__@@HHH@Z@4HA
xdata	ENDS
;	COMDAT CONST
CONST	SEGMENT
$cppxdata$?initialize@Vgfw@@QEAA_NPEB_WPEAUHINSTANCE__@@HHH@Z DQ 00000000119930522r ; 2.33398e-314
	DD	imagerel $stateUnwindMap$?initialize@Vgfw@@QEAA_NPEB_WPEAUHINSTANCE__@@HHH@Z
	DQ	00000000000000000r		; 0
	DD	03H
	DD	imagerel $ip2state$?initialize@Vgfw@@QEAA_NPEB_WPEAUHINSTANCE__@@HHH@Z
	DQ	00000000000000060r		; 4.74303e-322
	DD	01H
CONST	ENDS
;	COMDAT xdata
xdata	SEGMENT
$unwind$?initialize@Vgfw@@QEAA_NPEB_WPEAUHINSTANCE__@@HHH@Z DD 092311H
	DD	01d6423H
	DD	01c541fH
	DD	01a341bH
	DD	018010fH
	DD	07008H
	DD	imagerel __CxxFrameHandler3
	DD	imagerel $cppxdata$?initialize@Vgfw@@QEAA_NPEB_WPEAUHINSTANCE__@@HHH@Z
xdata	ENDS
;	COMDAT xdata
xdata	SEGMENT
$chain$2$?run@Vgfw@@QEAAXXZ DD 021H
	DD	imagerel $LN106@run
	DD	imagerel $LN106@run+131
	DD	imagerel $unwind$?run@Vgfw@@QEAAXXZ
xdata	ENDS
;	COMDAT xdata
xdata	SEGMENT
$chain$1$?run@Vgfw@@QEAAXXZ DD 041021H
	DD	0277810H
	DD	0286808H
	DD	imagerel $LN106@run
	DD	imagerel $LN106@run+131
	DD	imagerel $unwind$?run@Vgfw@@QEAAXXZ
xdata	ENDS
;	COMDAT xdata
xdata	SEGMENT
$unwind$?run@Vgfw@@QEAAXXZ DD 092919H
	DD	0576417H
	DD	0565417H
	DD	0553417H
	DD	0520117H
	DD	07010H
	DD	imagerel __GSHandlerCheck
	DD	0260H
xdata	ENDS
;	COMDAT xdata
xdata	SEGMENT
$unwind$?shutdown@Vgfw@@AEAAXXZ DD 081401H
	DD	086414H
	DD	075414H
	DD	063414H
	DD	070103214H
xdata	ENDS
;	COMDAT xdata
xdata	SEGMENT
$unwind$?on_paint@Vgfw@@AEAA_JXZ DD 092819H
	DD	0a45416H
	DD	0a33416H
	DD	09e0116H
	DD	0700de00fH
	DD	0600cH
	DD	imagerel __GSHandlerCheck
	DD	04e0H
xdata	ENDS
;	COMDAT xdata
xdata	SEGMENT
$unwind$?window_proc@Vgfw@@CA_JPEAUHWND__@@I_K_J@Z DD 072019H
	DD	09e010eH
	DD	07005e007H
	DD	050036004H
	DD	03002H
	DD	imagerel __GSHandlerCheck
	DD	04e0H
xdata	ENDS
;	COMDAT xdata
xdata	SEGMENT
$unwind$WinMain DD 031b19H
	DD	0f60109H
	DD	03002H
	DD	imagerel __GSHandlerCheck
	DD	07a0H
xdata	ENDS
;	COMDAT xdata
xdata	SEGMENT
$unwind$??0Vgfw@@QEAA@XZ DD 020601H
	DD	030023206H
xdata	ENDS
;	COMDAT xdata
xdata	SEGMENT
$unwind$??_GVgfw@@UEAAPEAXI@Z DD 020601H
	DD	030023206H
END
